(dp0
I163840
I2
sI425985
I3
sI163843
I1
sI425988
I2
sI32769
I3
sI393232
I2
sI32786
I3
sI32788
I0
sI426005
I3
sI131117
I1
sI163887
I1
sI163892
I3
sI163893
I1
sI458806
I3
sI458808
I3
sI163897
I3
sI458810
I3
sI98363
I3
sI163901
I3
sI360510
I0
sI32831
I3
sI98368
I3
sI32833
I3
sI163907
I2
sI32836
I2
sI98374
I2
sI98375
I2
sI32844
I3
sI32845
I1
sI98382
I3
sI98383
I3
sI316771
I2
sI32863
I2
sI98401
I3
sI32866
I3
sI32867
I0
sI32870
I3
sI98407
I0
sI360559
I3
sI360560
I2
sI21864
I2
sI71017
I3
sI393337
I2
sI32891
I3
sI163971
I3
sI163976
I3
sI32906
I3
sI32907
I3
sI163981
I1
sI163985
I1
sI295060
I3
sI32920
I3
sI163994
I3
sI163995
I3
sI32924
I3
sI295069
I3
sI163999
I0
sI164001
I3
sI182224
I3
sI300401
I2
sI32937
I3
sI32942
I2
sI295087
I2
sI32951
I3
sI164029
I3
sI426174
I3
sI164031
I2
sI32960
I0
sI164033
I3
sI32964
I3
sI196805
I0
sI32968
I3
sI32969
I3
sI32971
I2
sI32973
I3
sI32978
I0
sI164053
I2
sI196824
I2
sI164059
I3
sI196828
I3
sI32995
I2
sI32999
I3
sI33000
I2
sI229610
I3
sI164083
I3
sI459000
I3
sI164089
I3
sI33018
I1
sI164091
I3
sI164093
I2
sI33024
I3
sI33025
I3
sI164099
I3
sI33028
I0
sI33030
I0
sI164105
I2
sI164107
I2
sI33039
I0
sI27352
I0
sI164115
I0
sI33045
I3
sI33048
I3
sI180271
I2
sI295198
I3
sI295200
I0
sI164130
I2
sI33060
I0
sI164135
I3
sI557353
I2
sI557354
I3
sI295212
I1
sI164141
I3
sI295217
I3
sI33074
I0
sI164147
I3
sI33076
I3
sI33080
I0
sI33085
I3
sI33086
I3
sI131394
I2
sI33098
I0
sI131403
I1
sI33100
I0
sI33101
I0
sI131406
I3
sI131408
I1
sI131409
I2
sI196947
I0
sI33109
I1
sI98361
I3
sI33114
I3
sI229723
I3
sI33116
I2
sI196957
I0
sI164190
I2
sI33122
I3
sI32827
I2
sI33128
I3
sI229737
I2
sI32829
I0
sI164209
I2
sI164210
I0
sI164212
I2
sI32830
I3
sI426359
I1
sI164221
I3
sI229759
I3
sI164227
I2
sI164228
I3
sI164229
I3
sI164230
I3
sI164238
I3
sI164241
I2
sI229778
I3
sI164246
I3
sI164259
I3
sI393287
I3
sI164272
I3
sI262592
I2
sI131530
I2
sI131531
I3
sI131532
I3
sI229844
I2
sI163918
I3
sI360918
I3
sI163919
I2
sI164316
I1
sI229855
I3
sI164323
I3
sI164333
I3
sI164334
I0
sI164338
I3
sI164341
I3
sI393720
I3
sI131583
I2
sI164354
I1
sI33285
I3
sI164360
I3
sI164363
I3
sI164367
I2
sI557587
I0
sI33312
I3
sI164385
I2
sI33316
I2
sI24023
I3
sI164395
I3
sI33330
I1
sI33331
I2
sI361013
I1
sI33335
I3
sI33336
I2
sI426553
I2
sI33338
I3
sI33339
I1
sI33342
I2
sI33344
I2
sI32865
I2
sI164424
I2
sI164430
I1
sI361055
I2
sI262753
I0
sI492132
I3
sI11027
I3
sI426612
I2
sI164470
I3
sI164472
I3
sI180330
I3
sI164479
I2
sI33408
I3
sI164481
I0
sI33413
I3
sI33414
I3
sI426633
I2
sI33418
I0
sI33420
I3
sI33421
I2
sI164494
I2
sI98959
I3
sI33424
I0
sI33431
I1
sI33433
I2
sI33436
I2
sI207642
I3
sI38341
I1
sI33444
I3
sI33446
I2
sI164519
I0
sI33448
I2
sI33451
I3
sI426670
I3
sI355101
I2
sI98997
I2
sI33468
I2
sI33473
I1
sI164553
I0
sI33488
I3
sI426709
I0
sI99031
I2
sI267728
I3
sI459493
I2
sI99047
I2
sI197352
I3
sI459499
I0
sI99054
I0
sI230133
I2
sI33546
I1
sI33550
I1
sI33553
I3
sI38363
I2
sI33578
I0
sI33579
I3
sI33582
I3
sI33586
I3
sI33588
I3
sI103904
I2
sI164676
I2
sI33605
I3
sI164678
I3
sI38369
I0
sI33609
I3
sI164684
I2
sI33615
I3
sI33619
I2
sI33620
I3
sI33622
I0
sI164695
I0
sI361307
I3
sI33630
I1
sI164703
I3
sI33632
I2
sI33633
I2
sI164706
I2
sI361315
I3
sI361316
I3
sI33637
I3
sI33639
I0
sI33640
I0
sI361321
I2
sI361322
I2
sI33644
I1
sI361326
I3
sI361334
I1
sI361337
I2
sI164732
I0
sI361341
I0
sI426878
I3
sI33668
I2
sI197514
I2
sI197515
I0
sI426892
I3
sI459662
I2
sI33681
I3
sI33683
I2
sI33685
I3
sI131991
I2
sI131995
I2
sI33692
I0
sI33693
I2
sI33697
I2
sI197538
I0
sI361379
I3
sI361380
I3
sI197544
I3
sI295068
I3
sI33706
I2
sI33715
I3
sI197560
I2
sI300532
I1
sI33731
I1
sI33732
I1
sI33733
I3
sI33744
I2
sI33747
I3
sI33753
I1
sI33754
I3
sI33756
I3
sI33758
I3
sI33761
I2
sI33762
I0
sI33764
I1
sI41496
I2
sI33767
I3
sI263144
I3
sI33769
I2
sI99306
I0
sI33772
I2
sI33773
I2
sI33775
I3
sI33778
I0
sI27475
I3
sI164852
I3
sI33781
I2
sI33782
I2
sI99320
I0
sI99323
I2
sI33790
I2
sI99333
I3
sI33800
I0
sI33804
I3
sI132111
I3
sI66578
I0
sI33812
I3
sI33813
I3
sI66583
I0
sI33816
I3
sI33817
I2
sI135335
I2
sI33823
I3
sI33827
I1
sI33828
I3
sI562694
I0
sI33832
I2
sI33840
I0
sI33843
I3
sI33844
I2
sI427061
I3
sI33847
I3
sI33848
I3
sI33849
I3
sI33852
I2
sI33856
I3
sI33857
I2
sI33861
I3
sI33863
I3
sI66633
I3
sI33866
I2
sI230476
I3
sI33870
I3
sI33871
I2
sI33872
I2
sI33881
I2
sI263260
I3
sI33885
I3
sI33888
I3
sI33891
I0
sI33892
I2
sI33893
I3
sI33898
I3
sI263276
I2
sI32957
I3
sI33914
I1
sI197757
I3
sI32961
I0
sI33929
I3
sI33931
I3
sI33941
I2
sI27503
I1
sI33948
I1
sI33956
I0
sI33958
I1
sI33959
I3
sI33960
I3
sI33961
I3
sI33963
I3
sI33967
I2
sI33973
I2
sI33865
I3
sI562719
I3
sI361661
I3
sI66753
I0
sI33986
I1
sI33988
I3
sI66757
I1
sI33991
I2
sI33992
I3
sI34000
I3
sI34003
I1
sI197848
I0
sI460004
I3
sI394472
I3
sI34029
I3
sI361710
I3
sI361711
I3
sI361714
I2
sI34035
I2
sI34036
I3
sI34037
I0
sI361718
I3
sI361721
I3
sI361723
I3
sI34045
I3
sI34052
I3
sI361735
I3
sI361736
I2
sI361742
I2
sI361747
I0
sI361749
I3
sI197910
I3
sI361751
I3
sI361752
I2
sI525595
I2
sI361757
I3
sI34079
I2
sI361760
I2
sI34082
I0
sI361763
I3
sI361764
I0
sI361768
I3
sI361770
I2
sI361778
I2
sI34102
I0
sI34104
I3
sI34106
I0
sI361790
I2
sI361792
I2
sI34113
I3
sI34114
I3
sI66890
I3
sI263511
I1
sI66905
I3
sI66929
I3
sI66930
I3
sI66933
I2
sI66934
I2
sI34170
I0
sI66940
I0
sI34176
I0
sI34177
I0
sI34182
I3
sI34183
I3
sI34193
I3
sI34194
I3
sI104003
I2
sI34206
I3
sI185925
I3
sI230819
I3
sI34213
I1
sI66982
I3
sI230825
I2
sI34222
I3
sI427439
I0
sI34225
I2
sI66995
I3
sI34230
I3
sI34233
I2
sI34234
I3
sI67003
I2
sI67008
I3
sI198082
I3
sI34248
I0
sI34254
I2
sI164088
I3
sI34259
I3
sI34261
I0
sI34262
I2
sI34264
I2
sI34266
I0
sI34267
I3
sI34268
I3
sI34270
I1
sI34275
I3
sI263653
I3
sI263661
I3
sI230900
I2
sI263673
I2
sI230910
I2
sI34304
I3
sI34305
I3
sI196865
I0
sI263693
I2
sI33027
I3
sI34334
I0
sI34336
I3
sI34370
I0
sI230982
I3
sI104033
I1
sI394824
I1
sI394825
I3
sI34381
I3
sI230993
I3
sI132701
I0
sI231006
I0
sI183364
I0
sI493160
I0
sI34413
I3
sI34417
I2
sI263796
I3
sI34421
I1
sI34426
I3
sI34430
I3
sI362113
I2
sI362114
I3
sI362115
I3
sI34437
I3
sI362119
I2
sI362120
I2
sI362121
I3
sI278807
I0
sI493196
I2
sI165518
I1
sI34447
I3
sI164120
I3
sI165525
I3
sI165526
I3
sI67228
I3
sI34466
I0
sI198316
I2
sI34479
I3
sI198324
I2
sI557342
I1
sI34492
I2
sI100033
I3
sI198343
I0
sI132809
I3
sI362187
I2
sI132814
I1
sI165583
I3
sI362194
I2
sI362198
I0
sI27599
I2
sI231133
I2
sI34530
I1
sI34531
I0
sI198372
I3
sI67302
I3
sI165607
I2
sI165608
I3
sI67306
I0
sI132843
I3
sI132844
I0
sI34543
I0
sI33065
I0
sI165624
I0
sI198400
I3
sI67329
I3
sI34563
I3
sI67332
I3
sI67333
I2
sI67334
I2
sI34567
I2
sI231176
I0
sI34574
I2
sI263952
I3
sI67346
I3
sI362261
I3
sI34582
I0
sI67357
I1
sI34590
I3
sI231199
I2
sI67360
I2
sI132898
I3
sI67363
I3
sI67364
I0
sI34601
I2
sI67371
I3
sI198444
I3
sI67374
I1
sI165679
I2
sI198453
I3
sI67389
I3
sI34622
I3
sI67393
I2
sI267915
I2
sI165704
I3
sI67401
I0
sI165706
I2
sI165709
I0
sI67407
I0
sI34650
I3
sI34653
I3
sI34654
I3
sI34656
I1
sI198500
I0
sI493418
I0
sI198510
I2
sI34675
I3
sI427893
I2
sI34681
I2
sI34698
I3
sI165773
I3
sI264085
I3
sI526230
I0
sI264089
I2
sI198559
I2
sI198566
I2
sI559029
I2
sI198583
I0
sI165823
I3
sI198593
I3
sI131404
I3
sI34763
I0
sI427980
I2
sI196941
I2
sI427984
I2
sI559084
I2
sI264190
I2
sI165889
I0
sI133126
I3
sI264201
I2
sI264216
I3
sI264221
I3
sI428063
I2
sI657454
I3
sI33117
I2
sI165952
I1
sI133201
I3
sI264293
I3
sI33129
I1
sI198777
I3
sI27669
I3
sI34944
I3
sI34946
I2
sI34947
I0
sI166020
I3
sI161937
I2
sI34952
I3
sI127894
I3
sI34967
I2
sI34969
I0
sI34971
I3
sI395422
I3
sI493731
I3
sI362661
I2
sI34983
I0
sI231592
I2
sI362665
I3
sI33138
I3
sI166065
I3
sI27678
I3
sI231614
I3
sI198855
I3
sI35022
I3
sI231638
I2
sI362711
I2
sI202447
I2
sI166111
I2
sI115067
I3
sI231652
I3
sI38609
I3
sI395510
I0
sI231674
I1
sI36084
I0
sI67850
I3
sI49541
I1
sI166179
I3
sI35110
I3
sI35112
I3
sI35116
I3
sI35121
I3
sI67890
I2
sI35125
I3
sI67896
I3
sI67898
I3
sI109621
I3
sI231753
I3
sI262542
I0
sI67941
I3
sI362855
I3
sI202471
I3
sI67949
I1
sI67950
I3
sI67952
I2
sI67957
I3
sI67958
I3
sI67959
I3
sI231801
I2
sI231804
I2
sI264578
I1
sI231811
I3
sI166302
I0
sI133535
I3
sI35244
I3
sI246177
I2
sI109648
I2
sI437329
I0
sI97195
I0
sI264686
I3
sI35324
I3
sI264702
I2
sI35327
I2
sI229803
I2
sI35336
I1
sI35338
I0
sI625167
I3
sI35345
I2
sI68114
I0
sI68116
I2
sI166422
I2
sI166423
I3
sI68120
I2
sI264730
I2
sI264738
I2
sI264739
I3
sI264743
I2
sI231977
I2
sI461357
I2
sI166449
I2
sI166452
I2
sI2625
I3
sI35398
I2
sI166471
I3
sI35407
I0
sI35408
I2
sI35411
I2
sI297556
I3
sI35421
I0
sI35425
I0
sI166507
I3
sI35437
I3
sI35438
I3
sI35439
I2
sI35442
I1
sI35443
I2
sI35444
I3
sI35451
I2
sI35453
I1
sI35454
I0
sI428672
I3
sI199297
I0
sI68226
I0
sI264837
I2
sI264839
I2
sI264840
I2
sI264842
I3
sI35467
I3
sI68237
I3
sI35472
I3
sI35475
I0
sI35477
I1
sI186137
I3
sI35480
I3
sI35481
I0
sI166554
I3
sI264860
I3
sI68253
I3
sI232094
I3
sI232096
I3
sI68260
I3
sI35493
I2
sI232103
I2
sI35496
I1
sI35497
I0
sI35499
I3
sI35500
I3
sI232110
I0
sI166575
I2
sI101041
I0
sI101042
I3
sI264885
I3
sI166585
I0
sI35515
I3
sI2752
I3
sI35523
I0
sI35524
I3
sI35530
I0
sI101070
I3
sI232143
I1
sI2768
I3
sI2770
I2
sI32826
I0
sI166615
I3
sI232152
I3
sI330458
I1
sI35554
I3
sI101091
I3
sI232164
I2
sI166630
I2
sI35559
I2
sI35560
I3
sI2796
I1
sI101103
I3
sI2802
I2
sI2805
I3
sI186153
I3
sI35576
I0
sI166653
I2
sI35587
I3
sI166664
I2
sI166670
I3
sI166672
I1
sI166675
I3
sI166676
I3
sI35606
I3
sI166679
I3
sI166684
I3
sI364532
I2
sI166686
I2
sI38704
I0
sI2857
I2
sI35626
I1
sI35628
I3
sI166702
I3
sI68400
I2
sI68404
I3
sI35637
I3
sI68411
I2
sI35644
I1
sI166717
I3
sI363334
I3
sI101192
I3
sI363340
I0
sI101197
I2
sI363343
I2
sI101201
I3
sI35666
I2
sI68436
I2
sI363351
I0
sI2907
I2
sI23151
I3
sI35679
I0
sI35680
I3
sI494435
I2
sI363364
I1
sI363365
I3
sI17259
I0
sI363369
I3
sI232299
I2
sI133997
I0
sI166768
I1
sI35708
I3
sI35712
I3
sI68482
I1
sI448321
I3
sI35724
I0
sI35725
I0
sI213485
I3
sI213487
I0
sI2973
I3
sI2977
I3
sI265123
I2
sI68516
I0
sI2983
I0
sI2984
I1
sI35768
I3
sI158879
I3
sI115190
I3
sI68552
I2
sI35787
I3
sI33272
I1
sI71502
I3
sI166872
I3
sI166889
I3
sI162680
I2
sI134132
I3
sI35831
I2
sI166917
I3
sI35852
I2
sI166932
I3
sI35875
I1
sI35881
I3
sI35882
I2
sI35883
I2
sI101422
I2
sI101426
I0
sI166963
I2
sI265273
I1
sI101434
I2
sI265275
I3
sI35901
I3
sI35905
I0
sI35906
I1
sI134217
I3
sI134220
I0
sI134221
I0
sI134222
I2
sI278343
I2
sI134232
I0
sI134233
I3
sI134236
I3
sI167008
I2
sI35954
I1
sI167027
I2
sI167035
I1
sI68732
I3
sI101501
I3
sI101503
I3
sI35968
I3
sI199810
I3
sI3204
I2
sI68744
I3
sI134285
I3
sI35983
I3
sI167057
I0
sI265363
I3
sI35988
I3
sI35989
I3
sI35991
I1
sI199833
I2
sI68762
I3
sI35996
I0
sI35997
I2
sI35998
I3
sI199839
I3
sI68768
I1
sI36005
I3
sI36007
I3
sI36008
I3
sI36011
I2
sI36012
I2
sI36013
I1
sI68782
I3
sI115229
I3
sI36016
I0
sI68786
I3
sI298163
I3
sI462004
I3
sI167094
I3
sI36025
I0
sI68796
I3
sI36029
I1
sI300917
I2
sI68802
I2
sI36035
I3
sI265412
I3
sI36039
I3
sI36040
I2
sI68813
I1
sI101584
I1
sI101586
I3
sI36051
I3
sI101588
I0
sI101589
I0
sI36054
I1
sI36056
I3
sI36057
I3
sI68827
I3
sI36060
I3
sI563066
I3
sI658657
I2
sI68835
I1
sI68836
I3
sI68839
I2
sI68840
I3
sI36073
I3
sI36076
I3
sI167151
I3
sI3316
I3
sI36085
I3
sI36086
I3
sI36091
I2
sI36092
I2
sI68861
I0
sI298243
I2
sI462085
I3
sI68870
I0
sI68877
I2
sI246317
I2
sI36121
I2
sI36123
I3
sI38789
I3
sI180784
I3
sI36130
I2
sI36132
I2
sI36133
I2
sI3377
I0
sI36146
I3
sI202633
I3
sI36154
I2
sI71563
I2
sI68937
I3
sI36180
I3
sI36181
I1
sI167254
I0
sI36183
I3
sI36186
I3
sI68962
I3
sI3441
I3
sI167285
I1
sI265591
I3
sI22421
I3
sI101590
I1
sI363906
I3
sI363910
I2
sI69004
I1
sI69008
I0
sI69009
I3
sI265618
I0
sI69018
I3
sI38810
I0
sI36257
I0
sI69030
I3
sI45944
I3
sI69043
I3
sI560564
I3
sI3512
I2
sI36283
I1
sI3517
I0
sI36286
I1
sI3520
I2
sI36289
I3
sI36293
I3
sI298447
I2
sI298448
I2
sI298449
I2
sI396757
I2
sI265688
I3
sI69085
I2
sI36322
I3
sI36326
I3
sI69101
I3
sI432040
I3
sI167412
I3
sI69111
I2
sI69114
I0
sI265725
I2
sI265727
I3
sI495107
I0
sI167439
I3
sI36373
I1
sI36374
I1
sI36378
I2
sI36379
I3
sI36380
I3
sI69149
I1
sI36382
I2
sI101920
I1
sI36388
I3
sI36389
I0
sI36391
I2
sI36394
I3
sI36395
I3
sI71602
I2
sI69166
I2
sI36400
I3
sI38835
I3
sI259810
I3
sI36410
I0
sI36412
I0
sI38837
I2
sI167491
I2
sI113599
I3
sI265799
I2
sI364104
I2
sI364108
I2
sI101969
I0
sI396884
I3
sI429655
I3
sI396888
I2
sI429657
I3
sI429659
I3
sI104378
I1
sI69214
I3
sI101983
I1
sI69223
I3
sI69227
I2
sI69229
I0
sI102002
I0
sI69238
I2
sI69242
I3
sI69244
I3
sI200317
I2
sI36479
I1
sI69249
I3
sI167555
I2
sI364164
I2
sI167557
I3
sI69254
I3
sI69256
I2
sI69258
I2
sI167563
I3
sI69261
I3
sI69266
I3
sI69276
I3
sI69280
I3
sI167589
I3
sI36518
I3
sI298665
I3
sI36522
I3
sI38856
I2
sI191774
I3
sI265913
I2
sI265918
I3
sI265924
I0
sI167623
I3
sI36552
I2
sI36554
I2
sI69328
I2
sI167634
I2
sI364244
I3
sI265944
I3
sI167648
I3
sI69346
I3
sI69349
I0
sI93480
I2
sI69374
I3
sI36607
I0
sI364290
I2
sI36611
I0
sI560900
I0
sI69382
I1
sI36615
I3
sI331528
I3
sI27948
I3
sI93485
I3
sI462608
I2
sI331542
I2
sI429847
I3
sI429848
I3
sI36640
I0
sI36641
I3
sI69417
I3
sI429870
I3
sI429871
I3
sI69428
I3
sI429880
I2
sI104415
I3
sI528188
I3
sI200509
I0
sI186336
I3
sI200515
I3
sI429893
I2
sI298822
I3
sI298823
I3
sI429899
I0
sI528212
I1
sI33422
I3
sI279185
I3
sI331625
I3
sI69485
I3
sI266105
I3
sI69509
I3
sI69518
I3
sI102290
I0
sI200601
I0
sI69533
I3
sI200607
I0
sI429986
I3
sI36771
I3
sI429988
I2
sI69541
I2
sI36774
I0
sI36775
I3
sI298923
I2
sI36783
I0
sI36784
I0
sI36785
I3
sI69554
I2
sI36788
I0
sI36789
I2
sI200630
I2
sI200633
I3
sI200634
I2
sI298940
I3
sI298941
I3
sI36802
I2
sI149947
I0
sI36806
I3
sI364496
I3
sI102356
I3
sI69594
I1
sI528347
I2
sI38906
I3
sI69599
I3
sI36832
I3
sI69601
I3
sI36835
I1
sI102374
I2
sI364520
I2
sI36841
I3
sI36843
I0
sI36844
I3
sI36846
I1
sI69616
I2
sI36849
I3
sI69619
I3
sI561140
I2
sI102394
I1
sI69628
I2
sI69629
I0
sI36863
I3
sI69637
I0
sI36872
I1
sI36873
I1
sI299021
I2
sI36878
I1
sI299024
I2
sI69650
I1
sI69653
I3
sI36889
I0
sI470362
I2
sI200743
I2
sI69675
I0
sI299052
I2
sI69686
I2
sI36934
I3
sI135247
I0
sI69713
I3
sI462944
I1
sI168047
I0
sI528508
I0
sI168065
I0
sI135310
I2
sI168086
I2
sI37021
I3
sI200864
I0
sI200871
I3
sI69803
I0
sI102572
I0
sI37042
I2
sI37044
I3
sI37048
I0
sI69818
I2
sI37051
I3
sI200902
I2
sI69833
I3
sI102602
I2
sI37069
I0
sI299215
I2
sI102612
I3
sI200917
I0
sI102614
I3
sI102619
I0
sI102620
I3
sI102622
I3
sI102623
I0
sI102626
I3
sI102628
I3
sI102630
I3
sI102631
I0
sI69864
I2
sI364779
I3
sI37100
I3
sI37104
I2
sI37112
I3
sI37117
I1
sI102658
I3
sI200964
I3
sI200965
I3
sI191873
I0
sI37128
I3
sI38956
I3
sI364813
I2
sI37139
I2
sI69911
I3
sI364826
I3
sI37149
I1
sI37150
I0
sI37151
I2
sI37154
I0
sI69923
I3
sI168232
I0
sI37163
I3
sI37166
I0
sI37169
I3
sI266546
I3
sI37171
I3
sI37173
I2
sI37177
I3
sI102716
I0
sI102719
I0
sI37185
I2
sI659779
I3
sI37188
I3
sI495942
I3
sI37193
I1
sI37194
I3
sI37195
I3
sI37201
I3
sI37206
I1
sI37208
I2
sI37211
I3
sI299358
I2
sI37215
I3
sI37216
I1
sI430433
I3
sI168295
I1
sI299370
I3
sI299374
I2
sI37233
I1
sI37234
I2
sI168308
I3
sI49897
I3
sI37240
I3
sI37241
I2
sI37242
I2
sI33974
I0
sI37249
I2
sI37254
I0
sI37257
I3
sI37258
I3
sI37259
I3
sI201101
I3
sI201102
I3
sI299411
I3
sI168342
I2
sI201111
I3
sI37273
I0
sI361314
I1
sI37280
I3
sI37292
I3
sI496045
I0
sI37294
I3
sI70074
I3
sI37307
I3
sI70078
I2
sI37313
I0
sI561604
I2
sI37317
I3
sI168390
I0
sI37319
I3
sI388514
I0
sI37326
I3
sI561620
I2
sI37335
I1
sI37342
I2
sI102879
I2
sI37350
I3
sI528873
I3
sI37354
I3
sI37357
I3
sI37359
I3
sI299510
I3
sI299514
I3
sI37373
I3
sI37374
I3
sI102912
I2
sI37377
I1
sI37379
I3
sI37380
I3
sI37381
I3
sI37383
I3
sI38999
I0
sI37389
I0
sI37390
I0
sI39000
I3
sI430615
I2
sI37401
I3
sI5610
I2
sI37410
I3
sI37411
I2
sI37412
I0
sI37413
I3
sI37416
I3
sI37421
I1
sI37422
I3
sI37425
I2
sI37426
I3
sI37427
I3
sI37428
I3
sI37429
I2
sI37433
I2
sI37434
I3
sI37436
I2
sI37439
I1
sI37440
I3
sI37441
I2
sI37442
I3
sI37443
I3
sI37446
I0
sI37447
I2
sI37448
I3
sI37449
I3
sI37450
I2
sI37451
I3
sI37452
I0
sI37456
I1
sI37457
I0
sI37459
I2
sI37461
I2
sI37466
I0
sI37468
I3
sI37469
I0
sI37470
I3
sI37471
I3
sI37474
I2
sI37475
I3
sI37479
I3
sI37480
I2
sI37482
I3
sI37483
I0
sI37484
I3
sI269666
I3
sI70255
I3
sI37489
I0
sI37492
I3
sI37496
I0
sI37497
I0
sI37498
I3
sI37503
I1
sI70273
I3
sI37506
I0
sI37507
I2
sI37508
I3
sI299653
I2
sI37510
I2
sI37511
I1
sI37512
I3
sI37515
I3
sI70288
I3
sI37521
I2
sI37522
I2
sI37526
I3
sI70297
I0
sI561819
I1
sI37532
I3
sI181569
I3
sI37537
I2
sI37541
I3
sI37545
I3
sI37548
I2
sI37549
I2
sI37550
I0
sI37552
I0
sI37553
I3
sI37554
I0
sI37558
I0
sI37560
I2
sI365244
I3
sI365245
I2
sI37567
I2
sI37576
I0
sI37579
I1
sI37580
I2
sI37581
I3
sI70360
I3
sI37597
I3
sI168673
I1
sI103139
I2
sI37604
I3
sI37605
I2
sI213799
I3
sI266995
I0
sI37622
I3
sI37623
I1
sI37631
I3
sI267008
I2
sI317569
I3
sI70409
I0
sI37645
I2
sI37651
I2
sI230190
I2
sI37654
I2
sI168727
I3
sI37656
I1
sI37657
I3
sI37666
I3
sI37667
I3
sI4902
I3
sI168744
I3
sI37678
I1
sI37681
I2
sI103218
I1
sI37684
I2
sI306655
I2
sI4939
I3
sI213816
I3
sI37718
I3
sI627547
I2
sI103266
I3
sI37731
I3
sI299879
I1
sI299886
I0
sI70513
I2
sI148286
I0
sI37753
I3
sI37754
I3
sI115519
I3
sI37756
I0
sI277313
I2
sI37762
I3
sI529285
I2
sI37767
I2
sI37768
I3
sI37770
I1
sI37774
I2
sI201617
I3
sI37779
I0
sI37780
I1
sI37783
I2
sI5016
I0
sI37787
I3
sI37789
I3
sI37793
I3
sI496549
I2
sI37799
I0
sI33607
I3
sI37804
I2
sI37806
I3
sI5044
I1
sI5047
I1
sI463806
I1
sI37823
I3
sI37824
I2
sI463810
I3
sI5063
I2
sI103372
I1
sI299981
I3
sI463823
I0
sI299984
I3
sI37844
I3
sI37845
I0
sI463834
I2
sI365531
I2
sI37854
I1
sI37858
I3
sI114738
I3
sI37861
I3
sI17233
I2
sI201704
I3
sI37868
I1
sI37871
I0
sI37879
I3
sI103419
I3
sI267260
I3
sI37886
I3
sI103424
I2
sI37889
I3
sI103428
I1
sI201733
I0
sI37900
I1
sI201741
I3
sI201745
I2
sI243493
I3
sI103450
I2
sI37916
I3
sI37920
I2
sI103468
I1
sI103470
I3
sI37937
I1
sI22707
I3
sI37943
I3
sI365624
I3
sI361311
I2
sI103485
I1
sI37950
I2
sI103487
I3
sI37953
I3
sI37963
I3
sI201804
I3
sI37965
I3
sI37967
I0
sI37970
I3
sI33635
I3
sI301241
I3
sI33636
I3
sI37979
I3
sI37986
I3
sI267365
I3
sI37990
I1
sI5223
I0
sI365672
I2
sI267369
I3
sI361320
I3
sI267380
I2
sI267383
I0
sI38008
I3
sI5243
I2
sI205307
I0
sI50027
I3
sI70789
I3
sI38025
I3
sI38036
I3
sI5272
I3
sI280890
I3
sI148335
I2
sI70812
I3
sI201888
I2
sI361340
I3
sI38064
I3
sI38067
I3
sI110110
I2
sI38071
I0
sI201915
I0
sI201916
I3
sI38077
I0
sI201918
I3
sI213878
I3
sI306721
I3
sI201929
I2
sI169162
I3
sI300236
I3
sI201934
I3
sI56916
I3
sI70865
I2
sI38098
I0
sI201939
I0
sI38100
I3
sI33657
I0
sI38111
I3
sI50044
I0
sI38122
I3
sI169195
I3
sI169196
I3
sI169200
I2
sI38131
I2
sI169204
I0
sI33662
I2
sI38136
I0
sI38138
I3
sI38139
I2
sI169217
I2
sI38148
I3
sI103686
I2
sI38151
I3
sI103691
I3
sI38160
I3
sI38162
I3
sI38167
I3
sI38170
I3
sI103714
I2
sI70949
I3
sI38182
I0
sI38186
I3
sI115591
I3
sI38188
I3
sI38190
I0
sI70959
I0
sI70969
I3
sI459658
I3
sI38206
I2
sI5440
I1
sI459659
I2
sI136516
I0
sI38213
I3
sI38216
I2
sI131980
I3
sI169294
I2
sI38229
I2
sI38231
I0
sI136539
I1
sI136540
I3
sI38239
I2
sI38241
I2
sI110139
I2
sI38244
I3
sI38249
I2
sI38251
I0
sI38253
I3
sI38254
I2
sI38255
I3
sI38257
I3
sI38262
I0
sI38263
I0
sI202108
I2
sI38273
I3
sI421441
I3
sI71055
I2
sI38289
I1
sI38290
I3
sI38293
I3
sI119117
I3
sI71063
I0
sI26371
I2
sI267680
I3
sI361371
I2
sI103846
I2
sI38320
I0
sI38322
I3
sI38323
I2
sI103862
I3
sI38327
I1
sI103866
I2
sI38332
I2
sI103869
I3
sI38336
I2
sI38337
I3
sI38339
I3
sI202180
I3
sI202181
I3
sI38342
I3
sI361377
I0
sI267720
I3
sI568908
I3
sI103882
I3
sI103888
I0
sI38353
I3
sI38357
I2
sI38360
I2
sI38362
I2
sI568911
I3
sI38364
I2
sI38365
I3
sI38366
I3
sI38367
I0
sI38368
I3
sI103905
I3
sI202210
I0
sI38373
I3
sI202215
I1
sI38378
I3
sI38379
I0
sI202220
I2
sI38382
I0
sI300527
I3
sI38385
I3
sI38388
I3
sI38389
I3
sI38391
I1
sI38393
I3
sI38395
I1
sI5629
I3
sI38398
I2
sI5631
I0
sI38403
I2
sI103941
I0
sI38406
I3
sI562697
I0
sI562698
I3
sI38417
I3
sI38419
I0
sI568921
I2
sI38424
I3
sI38427
I1
sI103964
I3
sI5662
I0
sI38431
I3
sI38432
I3
sI38433
I2
sI38435
I2
sI38440
I0
sI38441
I3
sI169520
I3
sI38449
I3
sI38451
I2
sI38458
I3
sI38460
I0
sI5693
I3
sI104002
I3
sI38467
I1
sI38468
I2
sI104005
I3
sI5703
I3
sI38475
I3
sI5710
I1
sI300623
I2
sI38484
I1
sI267863
I3
sI38491
I0
sI169569
I3
sI202341
I2
sI38502
I0
sI202343
I2
sI38504
I3
sI38507
I3
sI104045
I0
sI464500
I3
sI267894
I0
sI38521
I3
sI169594
I3
sI38534
I3
sI267911
I2
sI38536
I1
sI300683
I2
sI38540
I3
sI208493
I3
sI38546
I3
sI38550
I2
sI38551
I0
sI71324
I3
sI38559
I1
sI38567
I0
sI38573
I2
sI38575
I3
sI38576
I3
sI38578
I0
sI38581
I2
sI71350
I2
sI38383
I2
sI71352
I3
sI71353
I2
sI71359
I2
sI71360
I3
sI38601
I0
sI202443
I0
sI38604
I0
sI432418
I0
sI38606
I3
sI38607
I3
sI159352
I3
sI38612
I0
sI38614
I0
sI267992
I3
sI38617
I1
sI38618
I3
sI38625
I3
sI38628
I1
sI71399
I3
sI169709
I2
sI169718
I1
sI38647
I2
sI169721
I0
sI268039
I3
sI38668
I1
sI202509
I2
sI169750
I0
sI169752
I3
sI464665
I2
sI186671
I3
sI169756
I1
sI115675
I1
sI595752
I3
sI38697
I3
sI71466
I3
sI38699
I0
sI38700
I0
sI38701
I3
sI38703
I3
sI71472
I2
sI497753
I0
sI38711
I3
sI202553
I3
sI38717
I0
sI38719
I3
sI202562
I2
sI38727
I3
sI38728
I0
sI38729
I3
sI71498
I1
sI38731
I3
sI71500
I3
sI169806
I3
sI38746
I3
sI38751
I0
sI38755
I0
sI71524
I1
sI38759
I0
sI202610
I2
sI300916
I2
sI38773
I0
sI300918
I3
sI202616
I1
sI38777
I2
sI38778
I3
sI432447
I3
sI38782
I0
sI38784
I3
sI38785
I3
sI38786
I2
sI71557
I3
sI38791
I2
sI202632
I1
sI38793
I1
sI38794
I0
sI38795
I3
sI38797
I1
sI38798
I2
sI202639
I3
sI38800
I3
sI38802
I2
sI38805
I1
sI38807
I2
sI202650
I2
sI38812
I3
sI93850
I2
sI38816
I2
sI38817
I0
sI38818
I3
sI38820
I2
sI38821
I2
sI38822
I2
sI202663
I3
sI202664
I2
sI38827
I0
sI202669
I2
sI268207
I3
sI300977
I3
sI300978
I2
sI71603
I3
sI38836
I3
sI268213
I3
sI71607
I3
sI104377
I0
sI38842
I3
sI38843
I3
sI104382
I3
sI38848
I0
sI104386
I3
sI71619
I3
sI104388
I1
sI104389
I2
sI104392
I0
sI38865
I0
sI38866
I3
sI104404
I0
sI104406
I0
sI202713
I0
sI104410
I2
sI104411
I3
sI301023
I3
sI38880
I2
sI268257
I3
sI71651
I2
sI268261
I2
sI38886
I2
sI38887
I0
sI38888
I2
sI38889
I2
sI104432
I1
sI268273
I3
sI104434
I0
sI38899
I3
sI38900
I0
sI268282
I3
sI268283
I2
sI268284
I2
sI38913
I2
sI38915
I0
sI137223
I0
sI38920
I0
sI38922
I3
sI268306
I1
sI38932
I2
sI38945
I3
sI104482
I3
sI38947
I0
sI202790
I3
sI38951
I0
sI38953
I1
sI181255
I3
sI71724
I3
sI38966
I0
sI38969
I3
sI38994
I3
sI71764
I0
sI71765
I3
sI268375
I1
sI71768
I2
sI432217
I3
sI33807
I3
sI71775
I3
sI71780
I2
sI268394
I2
sI71788
I0
sI39022
I3
sI301167
I0
sI39027
I3
sI39032
I3
sI39045
I2
sI39054
I3
sI39069
I2
sI39070
I3
sI181275
I3
sI71844
I2
sI39079
I3
sI39081
I3
sI301234
I2
sI39091
I3
sI301237
I3
sI170356
I3
sI399549
I2
sI39102
I2
sI102777
I3
sI39105
I2
sI39106
I2
sI39107
I2
sI39109
I2
sI104646
I0
sI39122
I0
sI71894
I2
sI71898
I3
sI71903
I0
sI39136
I2
sI39139
I3
sI71908
I3
sI39141
I0
sI39142
I0
sI39145
I2
sI39148
I3
sI39153
I1
sI39170
I1
sI39190
I2
sI39191
I3
sI39194
I3
sI432411
I1
sI39198
I3
sI39199
I3
sI39201
I3
sI170274
I0
sI39204
I1
sI39207
I3
sI104744
I3
sI39213
I2
sI39215
I2
sI39222
I3
sI39223
I3
sI39225
I0
sI39229
I3
sI33845
I1
sI39232
I2
sI39233
I2
sI186764
I3
sI104778
I2
sI170316
I2
sI170322
I1
sI170323
I1
sI432470
I1
sI39264
I3
sI39312
I0
sI39267
I2
sI170341
I3
sI39271
I0
sI170344
I2
sI39273
I3
sI39274
I3
sI39284
I3
sI170365
I2
sI39294
I1
sI39297
I3
sI39298
I3
sI39299
I3
sI39301
I3
sI39302
I1
sI39303
I3
sI39304
I3
sI39311
I0
sI301456
I3
sI39313
I1
sI39314
I3
sI39330
I3
sI39331
I3
sI39334
I3
sI39335
I2
sI39339
I0
sI39345
I3
sI39349
I2
sI39350
I0
sI39351
I1
sI24224
I1
sI39357
I2
sI39359
I2
sI39367
I3
sI170441
I3
sI170442
I2
sI104911
I3
sI39376
I2
sI39379
I2
sI39389
I3
sI39391
I3
sI39393
I2
sI208635
I2
sI39397
I2
sI39400
I2
sI39401
I1
sI39415
I1
sI39419
I3
sI39422
I3
sI39423
I3
sI39426
I3
sI39428
I2
sI39429
I3
sI39435
I0
sI39440
I3
sI39441
I3
sI39444
I2
sI183532
I2
sI39447
I0
sI104986
I1
sI22959
I2
sI39455
I3
sI39462
I2
sI39470
I3
sI39474
I0
sI39477
I1
sI39483
I2
sI39485
I3
sI105022
I0
sI39487
I2
sI39488
I0
sI39490
I3
sI72259
I3
sI39492
I3
sI39494
I0
sI39498
I3
sI39502
I0
sI39509
I3
sI39510
I1
sI170593
I3
sI6757
I2
sI170599
I0
sI39533
I2
sI39535
I2
sI39537
I3
sI28435
I3
sI39540
I0
sI39541
I3
sI498295
I3
sI39549
I3
sI39555
I3
sI39556
I0
sI243548
I1
sI39562
I3
sI39566
I1
sI39567
I1
sI6800
I3
sI39569
I3
sI39573
I1
sI39578
I2
sI465568
I2
sI170660
I0
sI39591
I3
sI170667
I3
sI39599
I1
sI72371
I2
sI72374
I0
sI432825
I3
sI39618
I2
sI39621
I3
sI72393
I3
sI39627
I3
sI465614
I3
sI39631
I3
sI6864
I3
sI72401
I2
sI39638
I0
sI39643
I3
sI39644
I3
sI39646
I3
sI72417
I3
sI72420
I3
sI39653
I0
sI39658
I3
sI39660
I0
sI301805
I2
sI301807
I2
sI301809
I0
sI301812
I1
sI72441
I3
sI72448
I3
sI400133
I3
sI203527
I1
sI72458
I2
sI39694
I3
sI72464
I2
sI39701
I2
sI39702
I3
sI170775
I0
sI39706
I2
sI28463
I2
sI72479
I3
sI39713
I1
sI39719
I3
sI72489
I1
sI39722
I3
sI39725
I1
sI39726
I3
sI39729
I3
sI28467
I3
sI39734
I2
sI28468
I0
sI39738
I2
sI186847
I2
sI465726
I2
sI39745
I0
sI39749
I0
sI72518
I3
sI629579
I2
sI94008
I2
sI39762
I3
sI39763
I3
sI72532
I3
sI94009
I3
sI465752
I3
sI39769
I1
sI72541
I3
sI39774
I3
sI72543
I3
sI72545
I3
sI39782
I3
sI105327
I0
sI39792
I2
sI39793
I2
sI39798
I2
sI39801
I3
sI257855
I3
sI39810
I3
sI465797
I3
sI105351
I3
sI203666
I3
sI94019
I3
sI39834
I3
sI39837
I0
sI94021
I3
sI39840
I0
sI39841
I3
sI39842
I3
sI39844
I2
sI72613
I2
sI39846
I3
sI39847
I2
sI498603
I3
sI39854
I2
sI72623
I2
sI39859
I3
sI72628
I0
sI72633
I2
sI138171
I2
sI302012
I3
sI39871
I3
sI39878
I3
sI465399
I2
sI72656
I2
sI39892
I3
sI72665
I3
sI203739
I2
sI39901
I0
sI39902
I2
sI203746
I0
sI203755
I3
sI39931
I3
sI302079
I2
sI72707
I0
sI465924
I2
sI199916
I3
sI39962
I3
sI39963
I3
sI39965
I3
sI72735
I0
sI39968
I2
sI39971
I2
sI171046
I2
sI39977
I3
sI39978
I2
sI39979
I3
sI39980
I3
sI39987
I0
sI39990
I3
sI39991
I0
sI39993
I3
sI39994
I0
sI39995
I3
sI39996
I3
sI39999
I2
sI40001
I3
sI186891
I1
sI40004
I3
sI40005
I3
sI40006
I3
sI40007
I3
sI40009
I3
sI40010
I2
sI40011
I3
sI40012
I3
sI72782
I2
sI426873
I3
sI40016
I3
sI40017
I3
sI40018
I2
sI171091
I2
sI40020
I3
sI40021
I3
sI171094
I3
sI40025
I3
sI103899
I2
sI40044
I3
sI72813
I3
sI72815
I3
sI40049
I3
sI72819
I3
sI7284
I2
sI40054
I0
sI40055
I2
sI40060
I2
sI40068
I3
sI105610
I2
sI159598
I0
sI39450
I2
sI40094
I1
sI433311
I3
sI302241
I0
sI40100
I3
sI17606
I0
sI7334
I1
sI40103
I3
sI40108
I3
sI171182
I3
sI40128
I3
sI72900
I2
sI40137
I2
sI40139
I3
sI105680
I3
sI40148
I3
sI40153
I3
sI171229
I3
sI105695
I3
sI40161
I3
sI72931
I0
sI40164
I3
sI242477
I3
sI171242
I0
sI40176
I2
sI400625
I2
sI171250
I0
sI40180
I3
sI40182
I2
sI40184
I3
sI40186
I1
sI40187
I2
sI40189
I2
sI40190
I3
sI40193
I2
sI23083
I3
sI40196
I3
sI40197
I0
sI40198
I2
sI40203
I0
sI34008
I3
sI186831
I3
sI466203
I0
sI40220
I3
sI302372
I3
sI73024
I3
sI433662
I3
sI171338
I3
sI40274
I2
sI466260
I2
sI73047
I3
sI361700
I3
sI105826
I3
sI105827
I2
sI105828
I1
sI40295
I3
sI466294
I3
sI72256
I3
sI466308
I3
sI204169
I2
sI301634
I3
sI40341
I3
sI73116
I3
sI204212
I2
sI466357
I3
sI105919
I0
sI7616
I2
sI105925
I3
sI7627
I2
sI7628
I2
sI73167
I2
sI171472
I3
sI73172
I2
sI433627
I3
sI433628
I3
sI564712
I3
sI40428
I3
sI269806
I3
sI7663
I3
sI292678
I3
sI302583
I0
sI40444
I2
sI466430
I3
sI7683
I3
sI40454
I0
sI287223
I3
sI466443
I3
sI208813
I2
sI40466
I3
sI171548
I0
sI106013
I3
sI40487
I2
sI40495
I3
sI466480
I3
sI40499
I0
sI40501
I2
sI400957
I0
sI400962
I2
sI466501
I2
sI40520
I2
sI279820
I3
sI40523
I2
sI335436
I3
sI73299
I2
sI40536
I3
sI40537
I2
sI433756
I3
sI40543
I3
sI40548
I3
sI40549
I1
sI302696
I3
sI40558
I2
sI40563
I2
sI40565
I3
sI564854
I1
sI40568
I2
sI40570
I3
sI40574
I3
sI40581
I1
sI40583
I1
sI73357
I2
sI40599
I3
sI40601
I2
sI40602
I1
sI40603
I3
sI40604
I1
sI40605
I2
sI40606
I3
sI40608
I2
sI40621
I3
sI171698
I3
sI40631
I0
sI40636
I0
sI106175
I3
sI73409
I1
sI401095
I0
sI40648
I1
sI40651
I3
sI40656
I3
sI40657
I3
sI40659
I2
sI40661
I3
sI40662
I3
sI171736
I0
sI40668
I3
sI40672
I1
sI40675
I3
sI40676
I3
sI73447
I2
sI73448
I0
sI40681
I3
sI40683
I3
sI40685
I3
sI40686
I2
sI40687
I2
sI466672
I3
sI106228
I2
sI73462
I1
sI73463
I2
sI40701
I3
sI40703
I3
sI40707
I0
sI40709
I1
sI40710
I0
sI40712
I1
sI171786
I2
sI171789
I3
sI40718
I3
sI40719
I2
sI40721
I3
sI40725
I2
sI40728
I3
sI40730
I3
sI171803
I2
sI40735
I3
sI40740
I3
sI40755
I0
sI106292
I0
sI40758
I2
sI154249
I0
sI40762
I0
sI40764
I2
sI302911
I3
sI302912
I2
sI106309
I3
sI18384
I2
sI40775
I3
sI490184
I0
sI6798
I3
sI40792
I0
sI73574
I2
sI40819
I0
sI40825
I3
sI171899
I2
sI197952
I1
sI106373
I3
sI361793
I0
sI40840
I2
sI302985
I2
sI40846
I0
sI466832
I3
sI466834
I2
sI154265
I2
sI181572
I1
sI466843
I2
sI171935
I0
sI466854
I3
sI466861
I3
sI303025
I2
sI466880
I2
sI39584
I1
sI466884
I3
sI466889
I2
sI466890
I2
sI466892
I0
sI171981
I1
sI40916
I1
sI171992
I2
sI171995
I2
sI47190
I2
sI237534
I3
sI40930
I2
sI237541
I2
sI237542
I3
sI106474
I0
sI40939
I0
sI40940
I3
sI40942
I2
sI303088
I0
sI303089
I0
sI40946
I2
sI40948
I0
sI40951
I3
sI237562
I1
sI237563
I2
sI40956
I2
sI40957
I2
sI40958
I0
sI40959
I1
sI40961
I3
sI40962
I2
sI40963
I1
sI40964
I2
sI40966
I2
sI40967
I2
sI40968
I2
sI40973
I2
sI40980
I1
sI40985
I3
sI40988
I2
sI40992
I1
sI40993
I2
sI237602
I3
sI303139
I3
sI237606
I3
sI237610
I3
sI41005
I3
sI41008
I3
sI303155
I3
sI237620
I3
sI41016
I3
sI303165
I3
sI41023
I3
sI303168
I2
sI41034
I2
sI303179
I3
sI237645
I1
sI237646
I3
sI467024
I1
sI467027
I2
sI172116
I3
sI41045
I1
sI434265
I2
sI303202
I3
sI41059
I3
sI41060
I3
sI41061
I2
sI303206
I3
sI41063
I2
sI106600
I0
sI41065
I2
sI41066
I1
sI172139
I0
sI41068
I3
sI41071
I3
sI467056
I2
sI41073
I0
sI172147
I3
sI73845
I3
sI41083
I3
sI172157
I1
sI41087
I1
sI41092
I3
sI41093
I3
sI270473
I1
sI41098
I2
sI172172
I3
sI41101
I3
sI41103
I3
sI106640
I2
sI41105
I3
sI434325
I3
sI172186
I2
sI172187
I2
sI41116
I3
sI41119
I0
sI41120
I3
sI41121
I3
sI41122
I3
sI41124
I2
sI41136
I2
sI208926
I2
sI39625
I3
sI41146
I0
sI269788
I3
sI41156
I2
sI41157
I0
sI41160
I2
sI41162
I3
sI41163
I2
sI41165
I3
sI41166
I3
sI41167
I3
sI41168
I2
sI41171
I0
sI41174
I2
sI41175
I0
sI41177
I0
sI41182
I3
sI434404
I3
sI41189
I3
sI303334
I0
sI41191
I3
sI41192
I2
sI205034
I3
sI41195
I1
sI41196
I3
sI41198
I3
sI303343
I2
sI303345
I3
sI73977
I2
sI303355
I3
sI303358
I3
sI303359
I3
sI41216
I3
sI532738
I0
sI41221
I3
sI41226
I3
sI73999
I2
sI41232
I2
sI41236
I3
sI41238
I0
sI41240
I0
sI74009
I3
sI41244
I0
sI172321
I0
sI172324
I2
sI41255
I2
sI465628
I3
sI74028
I1
sI74034
I3
sI41268
I0
sI41269
I0
sI94260
I3
sI172346
I2
sI74044
I2
sI41280
I0
sI74049
I3
sI41282
I0
sI41292
I0
sI41294
I0
sI41295
I0
sI41301
I1
sI41308
I0
sI74077
I0
sI41312
I3
sI94267
I2
sI172388
I0
sI41318
I3
sI41319
I3
sI41326
I2
sI41327
I0
sI139633
I3
sI139634
I3
sI139635
I3
sI41332
I2
sI139637
I0
sI467318
I2
sI303484
I3
sI41349
I3
sI41350
I2
sI301804
I1
sI41358
I2
sI41360
I3
sI41361
I3
sI41364
I2
sI41365
I3
sI139671
I2
sI139672
I0
sI41369
I2
sI172443
I3
sI172446
I3
sI41376
I3
sI41378
I3
sI41380
I3
sI41384
I0
sI34112
I3
sI41394
I2
sI270774
I0
sI41399
I3
sI74169
I3
sI41404
I2
sI41405
I1
sI41411
I0
sI41412
I3
sI41413
I2
sI172486
I0
sI41415
I3
sI172489
I1
sI532942
I1
sI41432
I3
sI41433
I2
sI205278
I3
sI34214
I3
sI41458
I1
sI74229
I0
sI41462
I3
sI41463
I2
sI41465
I3
sI41466
I1
sI41467
I3
sI41468
I2
sI41469
I2
sI41470
I3
sI139775
I3
sI41475
I2
sI41478
I3
sI467466
I3
sI467467
I3
sI41488
I2
sI41489
I1
sI467478
I3
sI467480
I3
sI41497
I3
sI467485
I2
sI139806
I3
sI467488
I0
sI467494
I3
sI467499
I2
sI139822
I0
sI74291
I3
sI107066
I3
sI74302
I3
sI41536
I3
sI74305
I3
sI172610
I3
sI41540
I3
sI41542
I2
sI172615
I2
sI8777
I3
sI8780
I0
sI8784
I2
sI23310
I3
sI434778
I2
sI41564
I0
sI41568
I3
sI39696
I3
sI172644
I0
sI23187
I3
sI41582
I2
sI74354
I1
sI139895
I3
sI41592
I0
sI139898
I3
sI107132
I3
sI41602
I3
sI421995
I2
sI41605
I3
sI41606
I3
sI8840
I0
sI74382
I2
sI41616
I2
sI139922
I3
sI41619
I3
sI159854
I3
sI41622
I0
sI41629
I3
sI41631
I0
sI74403
I3
sI94321
I2
sI41640
I3
sI74410
I0
sI41643
I1
sI8881
I2
sI41652
I3
sI41654
I3
sI41655
I3
sI303800
I3
sI41658
I2
sI41659
I0
sI8893
I2
sI41666
I3
sI74435
I3
sI41669
I2
sI41670
I3
sI41671
I1
sI303824
I2
sI74452
I2
sI41688
I3
sI8922
I0
sI41694
I3
sI172768
I3
sI8930
I3
sI41704
I2
sI467689
I3
sI41707
I3
sI41708
I1
sI41711
I3
sI198099
I3
sI41718
I0
sI41722
I1
sI41725
I3
sI41726
I2
sI41727
I0
sI41735
I3
sI312791
I3
sI107280
I2
sI107281
I2
sI500502
I3
sI8985
I3
sI41754
I3
sI303899
I2
sI41760
I2
sI303905
I3
sI303906
I0
sI50651
I1
sI41766
I3
sI303912
I3
sI172841
I2
sI303914
I3
sI74542
I3
sI303919
I1
sI303922
I2
sI26465
I3
sI303926
I2
sI303929
I3
sI303935
I0
sI280033
I3
sI172875
I0
sI41807
I1
sI41809
I3
sI172887
I3
sI41816
I3
sI41818
I1
sI500575
I1
sI172896
I3
sI172899
I2
sI172901
I2
sI238438
I2
sI500585
I0
sI41841
I3
sI9079
I3
sI500602
I2
sI41852
I3
sI9086
I3
sI303999
I3
sI41864
I1
sI41865
I3
sI500618
I3
sI278541
I0
sI41869
I3
sI304014
I3
sI107408
I3
sI304017
I2
sI41874
I3
sI304019
I3
sI172948
I3
sI41877
I2
sI41878
I3
sI41879
I3
sI107417
I2
sI41882
I2
sI41884
I3
sI41886
I1
sI41887
I2
sI41888
I2
sI41890
I2
sI41892
I3
sI74663
I3
sI41896
I3
sI127133
I2
sI74672
I3
sI127134
I3
sI74689
I1
sI41923
I3
sI41927
I3
sI41930
I3
sI41931
I2
sI173011
I3
sI41941
I2
sI41942
I3
sI41947
I3
sI41948
I1
sI9183
I1
sI74721
I3
sI41962
I3
sI107502
I3
sI74736
I1
sI500721
I3
sI6853
I3
sI74739
I3
sI41975
I1
sI74744
I3
sI74747
I3
sI9213
I2
sI23193
I3
sI74752
I3
sI74757
I3
sI435214
I3
sI74771
I2
sI42008
I3
sI42009
I1
sI42017
I0
sI38469
I3
sI72542
I3
sI500791
I0
sI42041
I0
sI42043
I3
sI74814
I0
sI42052
I0
sI205893
I3
sI74827
I3
sI369742
I3
sI74838
I0
sI12473
I3
sI74858
I0
sI566379
I3
sI280083
I3
sI205940
I3
sI566389
I3
sI369788
I3
sI42113
I1
sI42116
I3
sI42119
I3
sI369800
I2
sI42121
I0
sI566420
I3
sI42141
I1
sI42153
I0
sI192711
I2
sI256728
I0
sI42168
I3
sI121716
I3
sI263712
I3
sI238786
I2
sI369859
I3
sI500932
I2
sI107717
I0
sI140490
I2
sI500939
I2
sI140495
I3
sI140497
I3
sI140500
I3
sI304345
I3
sI304348
I3
sI304350
I3
sI304353
I3
sI304355
I1
sI304356
I0
sI9449
I3
sI74989
I3
sI74990
I3
sI74991
I3
sI238838
I2
sI42231
I1
sI42232
I3
sI238841
I3
sI75004
I3
sI42237
I3
sI238851
I2
sI173317
I3
sI42247
I1
sI42253
I3
sI107792
I3
sI42257
I3
sI42258
I3
sI42262
I2
sI42263
I2
sI107806
I1
sI42276
I1
sI501040
I3
sI42294
I3
sI42297
I3
sI42304
I3
sI42306
I1
sI271684
I0
sI173382
I3
sI304455
I3
sI107848
I3
sI173385
I0
sI402765
I2
sI173393
I2
sI42325
I0
sI422117
I3
sI173408
I3
sI163988
I3
sI206182
I2
sI42346
I3
sI42352
I3
sI173427
I3
sI42357
I2
sI127209
I2
sI173432
I0
sI42368
I3
sI599425
I0
sI664962
I2
sI173448
I2
sI173449
I2
sI351127
I3
sI107920
I0
sI42387
I0
sI42388
I3
sI173461
I0
sI42390
I1
sI42393
I3
sI173466
I3
sI42396
I3
sI206242
I0
sI173484
I3
sI75609
I3
sI304563
I0
sI42420
I3
sI42422
I1
sI198217
I3
sI75192
I2
sI42425
I0
sI75194
I2
sI75195
I1
sI75196
I3
sI75197
I3
sI42431
I2
sI42433
I2
sI42434
I3
sI173509
I3
sI42443
I2
sI75214
I0
sI107983
I0
sI75216
I2
sI107987
I2
sI239061
I2
sI206301
I0
sI173534
I3
sI42463
I3
sI435683
I2
sI75239
I2
sI42478
I1
sI42479
I3
sI42482
I2
sI42491
I2
sI138155
I3
sI108038
I2
sI140819
I2
sI138159
I1
sI42524
I0
sI402975
I2
sI632356
I3
sI42534
I3
sI42536
I2
sI173609
I3
sI75306
I3
sI75307
I2
sI75310
I0
sI42554
I2
sI403003
I0
sI173630
I3
sI75331
I3
sI42568
I3
sI75342
I2
sI42579
I3
sI75348
I1
sI42582
I2
sI42583
I2
sI304733
I2
sI42592
I1
sI42594
I3
sI42596
I3
sI42598
I2
sI42600
I3
sI42601
I2
sI75371
I3
sI239213
I3
sI75376
I2
sI239219
I2
sI75390
I1
sI173699
I2
sI140932
I3
sI75397
I3
sI75398
I2
sI75405
I0
sI108179
I2
sI239253
I2
sI42647
I3
sI239256
I0
sI42650
I3
sI42651
I3
sI42652
I0
sI173730
I2
sI140963
I3
sI140965
I0
sI42664
I0
sI206508
I2
sI75445
I0
sI140982
I2
sI239287
I0
sI34420
I3
sI140988
I3
sI49550
I3
sI435902
I2
sI42691
I3
sI42692
I1
sI42693
I3
sI42695
I3
sI42696
I0
sI42702
I1
sI42703
I3
sI42704
I3
sI42706
I2
sI304855
I2
sI42712
I3
sI304857
I3
sI42714
I2
sI42715
I3
sI304860
I0
sI75489
I3
sI362110
I0
sI239350
I3
sI239352
I2
sI206592
I1
sI493185
I3
sI42771
I2
sI42773
I3
sI141082
I3
sI667951
I0
sI198277
I3
sI206641
I1
sI141113
I3
sI75578
I3
sI75579
I1
sI173885
I3
sI436036
I3
sI141126
I1
sI42824
I2
sI206668
I3
sI42829
I1
sI75600
I1
sI75606
I3
sI206679
I2
sI173913
I0
sI141146
I3
sI108381
I0
sI75616
I2
sI173922
I0
sI75619
I2
sI42852
I3
sI206694
I0
sI206695
I2
sI141160
I2
sI141161
I0
sI206698
I0
sI42860
I3
sI206701
I2
sI173936
I3
sI108401
I3
sI206711
I1
sI42873
I2
sI173952
I3
sI45376
I0
sI173955
I2
sI173957
I3
sI173965
I3
sI42898
I1
sI206743
I0
sI42909
I1
sI173983
I3
sI108451
I3
sI239527
I3
sI239528
I2
sI173993
I3
sI305066
I3
sI108461
I2
sI75696
I0
sI42944
I3
sI174018
I3
sI239559
I3
sI206792
I2
sI206793
I3
sI206795
I3
sI174030
I1
sI174031
I3
sI206801
I1
sI206805
I1
sI206807
I0
sI206809
I1
sI42971
I0
sI206822
I1
sI108521
I3
sI239594
I3
sI108524
I3
sI206829
I2
sI174062
I2
sI239599
I3
sI108535
I3
sI206844
I2
sI43008
I3
sI174093
I3
sI274776
I1
sI108568
I2
sI39940
I0
sI108572
I3
sI43049
I3
sI40714
I1
sI43061
I3
sI141370
I3
sI305214
I0
sI34485
I1
sI141395
I3
sI141396
I2
sI43096
I3
sI43097
I0
sI305248
I1
sI10348
I2
sI174203
I3
sI78186
I0
sI43135
I3
sI43138
I3
sI174220
I0
sI43158
I2
sI239774
I3
sI482331
I2
sI207021
I3
sI207039
I3
sI207045
I0
sI43208
I3
sI43210
I3
sI207058
I1
sI43223
I2
sI108760
I3
sI43230
I1
sI469216
I0
sI7206
I0
sI10474
I0
sI43247
I3
sI43248
I3
sI174321
I3
sI43250
I3
sI43252
I3
sI174325
I3
sI174326
I2
sI23593
I3
sI10491
I2
sI38539
I2
sI141576
I3
sI108809
I0
sI43275
I0
sI207118
I2
sI43279
I0
sI43282
I1
sI43283
I1
sI43284
I3
sI43289
I3
sI174363
I3
sI174364
I2
sI469277
I3
sI43294
I2
sI469285
I3
sI43303
I0
sI43307
I0
sI43310
I2
sI239919
I2
sI469296
I2
sI43313
I1
sI43317
I3
sI43319
I2
sI43321
I3
sI43329
I0
sI105526
I3
sI469318
I3
sI239946
I2
sI67298
I3
sI43345
I2
sI43348
I2
sI239958
I3
sI239959
I3
sI67300
I2
sI239964
I3
sI239965
I3
sI141662
I2
sI43372
I2
sI239981
I2
sI43374
I3
sI43375
I3
sI67304
I3
sI318526
I3
sI338295
I2
sI338299
I3
sI207234
I3
sI141699
I3
sI207236
I3
sI207238
I3
sI174472
I0
sI34540
I3
sI207243
I2
sI10637
I1
sI174480
I3
sI67311
I1
sI108956
I2
sI141733
I0
sI240044
I0
sI240054
I2
sI207291
I2
sI207293
I3
sI174526
I3
sI108994
I3
sI105548
I0
sI174546
I3
sI40014
I1
sI40015
I3
sI109055
I3
sI109058
I3
sI109060
I1
sI174597
I3
sI174600
I3
sI109065
I3
sI141114
I2
sI143790
I2
sI469528
I3
sI109087
I2
sI109088
I3
sI198406
I2
sI174630
I3
sI174634
I0
sI305712
I2
sI109121
I0
sI240205
I3
sI109147
I3
sI174690
I3
sI207462
I2
sI240235
I3
sI240236
I3
sI67349
I3
sI10880
I2
sI109191
I3
sI160194
I2
sI207511
I2
sI174747
I2
sI207517
I2
sI207523
I2
sI109222
I1
sI305831
I2
sI77834
I2
sI10933
I2
sI207542
I2
sI104384
I1
sI10950
I3
sI469705
I0
sI240337
I2
sI240338
I1
sI10967
I3
sI240346
I2
sI240348
I3
sI109280
I0
sI109281
I3
sI109288
I0
sI240367
I3
sI109298
I2
sI207603
I2
sI67369
I2
sI207617
I2
sI174850
I2
sI469763
I2
sI174853
I2
sI174855
I2
sI11024
I1
sI109330
I3
sI109331
I3
sI109332
I3
sI24372
I2
sI109338
I2
sI12763
I2
sI209372
I2
sI305968
I2
sI11061
I3
sI371538
I0
sI469852
I2
sI240477
I3
sI240478
I2
sI142186
I2
sI502645
I2
sI109434
I0
sI306062
I2
sI306068
I3
sI240537
I3
sI240538
I3
sI240539
I3
sI240540
I3
sI240556
I3
sI40093
I3
sI109491
I2
sI34633
I0
sI427850
I3
sI142272
I3
sI306117
I0
sI142282
I3
sI306128
I3
sI89846
I2
sI203940
I2
sI11242
I3
sI470003
I1
sI306167
I0
sI306174
I3
sI273419
I3
sI438787
I3
sI11285
I3
sI422404
I0
sI23727
I3
sI502812
I3
sI306206
I3
sI338979
I2
sI109615
I3
sI535600
I3
sI273458
I3
sI11316
I1
sI11317
I2
sI109622
I1
sI11319
I1
sI11320
I1
sI11321
I1
sI11323
I3
sI11324
I3
sI306239
I0
sI11329
I3
sI11332
I3
sI109638
I3
sI109639
I3
sI11336
I1
sI109647
I3
sI207952
I3
sI109649
I3
sI109650
I1
sI109651
I3
sI109652
I3
sI109653
I0
sI11357
I3
sI306296
I3
sI395114
I2
sI318656
I0
sI240788
I3
sI535701
I0
sI240790
I2
sI40132
I3
sI175259
I2
sI273564
I3
sI13474
I3
sI240837
I2
sI175305
I2
sI208077
I3
sI175311
I2
sI601304
I2
sI109786
I3
sI280443
I2
sI306407
I3
sI11496
I2
sI11498
I1
sI13477
I3
sI568589
I2
sI470301
I3
sI470305
I3
sI11555
I2
sI240935
I3
sI176691
I2
sI503098
I3
sI466143
I2
sI339260
I0
sI470337
I3
sI109897
I3
sI109898
I2
sI306507
I3
sI208208
I2
sI470361
I3
sI306522
I2
sI306523
I0
sI40165
I0
sI470370
I2
sI208230
I2
sI503149
I0
sI470416
I3
sI242243
I1
sI535957
I2
sI11671
I3
sI208280
I3
sI11685
I2
sI208295
I3
sI141145
I2
sI143945
I2
sI208315
I3
sI306631
I2
sI11726
I3
sI113868
I2
sI111182
I2
sI11736
I3
sI306651
I2
sI208348
I3
sI11743
I2
sI470499
I3
sI470503
I2
sI11754
I3
sI11758
I3
sI601592
I2
sI470521
I2
sI208388
I3
sI470539
I3
sI470541
I3
sI470546
I2
sI11796
I3
sI11798
I2
sI11801
I3
sI110106
I3
sI110107
I2
sI275034
I2
sI175646
I3
sI110112
I1
sI110113
I3
sI110115
I0
sI110116
I3
sI29276
I3
sI306731
I3
sI306732
I3
sI306735
I3
sI110128
I2
sI110135
I3
sI110137
I2
sI111199
I2
sI23818
I3
sI110142
I3
sI11840
I0
sI110145
I3
sI110147
I3
sI110148
I2
sI110150
I3
sI568903
I0
sI11849
I2
sI110156
I3
sI110159
I3
sI110161
I0
sI11863
I3
sI110168
I3
sI110169
I3
sI110184
I3
sI110185
I3
sI110189
I2
sI208494
I3
sI11901
I3
sI110206
I2
sI110214
I2
sI142992
I2
sI142994
I0
sI18376
I3
sI601783
I0
sI23839
I2
sI175806
I2
sI470720
I3
sI569038
I2
sI569039
I3
sI198607
I2
sI306913
I2
sI274156
I2
sI110331
I3
sI241424
I3
sI470807
I3
sI470814
I2
sI111237
I3
sI208672
I0
sI208676
I0
sI110378
I3
sI110382
I1
sI208688
I3
sI470836
I3
sI208699
I1
sI307015
I3
sI307017
I3
sI175947
I2
sI307021
I3
sI208718
I1
sI569171
I3
sI241498
I0
sI241501
I2
sI77664
I3
sI208743
I2
sI89405
I3
sI77690
I3
sI307069
I3
sI77704
I2
sI77727
I0
sI94876
I3
sI77741
I3
sI208814
I2
sI12209
I1
sI77767
I3
sI77773
I2
sI77774
I3
sI77778
I3
sI208852
I0
sI12245
I0
sI12246
I0
sI77813
I0
sI12283
I0
sI12288
I3
sI143365
I0
sI536584
I3
sI307210
I3
sI307218
I2
sI12307
I2
sI12310
I2
sI307224
I0
sI307226
I3
sI307227
I3
sI12318
I1
sI12320
I3
sI208929
I2
sI77860
I3
sI12327
I2
sI12330
I3
sI143403
I0
sI340014
I3
sI208943
I2
sI438320
I2
sI12340
I1
sI176186
I1
sI241728
I3
sI176201
I3
sI40290
I2
sI176206
I2
sI143442
I3
sI241747
I2
sI12374
I3
sI208984
I3
sI208985
I3
sI208986
I2
sI12386
I0
sI307302
I3
sI12405
I3
sI209014
I2
sI45182
I1
sI477205
I0
sI12431
I3
sI110738
I0
sI45204
I0
sI45205
I2
sI143512
I0
sI241825
I0
sI143523
I2
sI45220
I2
sI12454
I3
sI176298
I2
sI176299
I3
sI176300
I2
sI176301
I2
sI176303
I3
sI45237
I3
sI438456
I2
sI45241
I2
sI45244
I3
sI45245
I1
sI274623
I2
sI45249
I3
sI73078
I3
sI45254
I3
sI45256
I0
sI160460
I3
sI209099
I3
sI45272
I3
sI45280
I3
sI45285
I3
sI45286
I3
sI438507
I2
sI307436
I2
sI45294
I3
sI45306
I1
sI45307
I3
sI667901
I3
sI45311
I0
sI45312
I0
sI45316
I3
sI23939
I3
sI182637
I3
sI45340
I3
sI110878
I3
sI110883
I2
sI45352
I3
sI45357
I3
sI45359
I2
sI667953
I3
sI176435
I2
sI667962
I0
sI667963
I3
sI667964
I1
sI667968
I2
sI667970
I2
sI667972
I2
sI209225
I2
sI241996
I1
sI241997
I3
sI45400
I0
sI274779
I3
sI274780
I2
sI274781
I2
sI143710
I0
sI110947
I3
sI110948
I0
sI45413
I3
sI78185
I3
sI45418
I3
sI72436
I0
sI45435
I2
sI45440
I3
sI143750
I3
sI143752
I2
sI143757
I3
sI209296
I3
sI45457
I2
sI12692
I0
sI45461
I3
sI45462
I3
sI45464
I3
sI45466
I3
sI209312
I2
sI45473
I0
sI45481
I2
sI45482
I3
sI45483
I3
sI45485
I3
sI242094
I2
sI45488
I3
sI143793
I3
sI45490
I0
sI143795
I3
sI45492
I1
sI45496
I3
sI111033
I2
sI45500
I3
sI45502
I2
sI45503
I3
sI209361
I3
sI209362
I0
sI111060
I2
sI209371
I3
sI111068
I0
sI209373
I3
sI12766
I3
sI143841
I3
sI209380
I3
sI242151
I3
sI209384
I2
sI78314
I3
sI209387
I2
sI242156
I3
sI424875
I0
sI78324
I2
sI438780
I3
sI209405
I3
sI45571
I1
sI209413
I3
sI209418
I3
sI209419
I3
sI209422
I1
sI45588
I2
sI209430
I2
sI45592
I3
sI45596
I0
sI209439
I2
sI155056
I0
sI209442
I3
sI45605
I2
sI176680
I3
sI176682
I1
sI143923
I1
sI242229
I3
sI7604
I2
sI242234
I1
sI176704
I2
sI45835
I2
sI78404
I3
sI75373
I2
sI78409
I0
sI78410
I2
sI78411
I3
sI78413
I3
sI176718
I3
sI242260
I3
sI111190
I3
sI111193
I1
sI111194
I3
sI209503
I3
sI209507
I2
sI179375
I3
sI40383
I0
sI242300
I1
sI39711
I0
sI242306
I3
sI242308
I2
sI45701
I3
sI155075
I3
sI7621
I1
sI215384
I2
sI78505
I3
sI78507
I3
sI78511
I3
sI45744
I0
sI78513
I3
sI275122
I0
sI45749
I3
sI176831
I0
sI78537
I3
sI78541
I3
sI78544
I0
sI45778
I0
sI45780
I3
sI13033
I1
sI13034
I1
sI406257
I3
sI242418
I3
sI18558
I1
sI45815
I2
sI45816
I3
sI176889
I3
sI45824
I3
sI45830
I0
sI45831
I3
sI45833
I2
sI406283
I2
sI45836
I1
sI45837
I3
sI45839
I0
sI45840
I3
sI166019
I2
sI23349
I3
sI45860
I2
sI242469
I2
sI45865
I0
sI360509
I2
sI570159
I2
sI45872
I3
sI45875
I3
sI45879
I2
sI176953
I2
sI45891
I3
sI45898
I0
sI13131
I1
sI45174
I2
sI209782
I3
sI308088
I2
sI209785
I1
sI209786
I2
sI275328
I2
sI13191
I2
sI209815
I0
sI177057
I2
sI13225
I2
sI45996
I3
sI56819
I2
sI46008
I3
sI46010
I3
sI209855
I2
sI18592
I3
sI46023
I0
sI568920
I3
sI46030
I3
sI177126
I1
sI46056
I3
sI46059
I0
sI46067
I3
sI13301
I3
sI570359
I3
sI570360
I3
sI46078
I3
sI46079
I3
sI177152
I1
sI275457
I2
sI209922
I3
sI116907
I2
sI46085
I0
sI13320
I1
sI308236
I0
sI13327
I3
sI13329
I3
sI40451
I0
sI242709
I2
sI13334
I2
sI46104
I2
sI209950
I3
sI242719
I3
sI24449
I0
sI13345
I1
sI13349
I3
sI13350
I3
sI46120
I2
sI46130
I1
sI308277
I2
sI78902
I0
sI78904
I1
sI78908
I3
sI13376
I3
sI570434
I3
sI570437
I0
sI439366
I3
sI13383
I0
sI78926
I3
sI308309
I3
sI111703
I3
sI111704
I2
sI13405
I3
sI210015
I0
sI13410
I2
sI570473
I3
sI357223
I0
sI210029
I0
sI13423
I3
sI13425
I0
sI13428
I2
sI275573
I0
sI95081
I3
sI46203
I0
sI13436
I1
sI111741
I1
sI210046
I1
sI46211
I2
sI46212
I3
sI13449
I3
sI46221
I3
sI78990
I2
sI46224
I1
sI210065
I2
sI668820
I2
sI46230
I2
sI46231
I3
sI46232
I3
sI13471
I1
sI13472
I1
sI13473
I1
sI46242
I3
sI46243
I3
sI46244
I3
sI79013
I3
sI46246
I3
sI13480
I3
sI13481
I3
sI13483
I2
sI13486
I3
sI46256
I3
sI111794
I0
sI46261
I0
sI13494
I1
sI242872
I3
sI111801
I3
sI242874
I3
sI242877
I3
sI210111
I3
sI13504
I3
sI210114
I1
sI210115
I2
sI210117
I3
sI210118
I0
sI210119
I3
sI210120
I2
sI242889
I3
sI210122
I3
sI13515
I3
sI242892
I3
sI13518
I3
sI210128
I3
sI46289
I0
sI56867
I2
sI242901
I3
sI46295
I2
sI242904
I2
sI46297
I3
sI210138
I3
sI13533
I3
sI210142
I3
sI210146
I0
sI13549
I3
sI13551
I3
sI111858
I3
sI210164
I1
sI13557
I3
sI111862
I2
sI111865
I3
sI46335
I0
sI46338
I3
sI46342
I3
sI46344
I2
sI46345
I0
sI210186
I3
sI111885
I3
sI242958
I0
sI46353
I3
sI46354
I3
sI46359
I3
sI111897
I2
sI275739
I2
sI46365
I1
sI111909
I3
sI46374
I3
sI275751
I1
sI46377
I0
sI111917
I3
sI275760
I1
sI46386
I3
sI275763
I3
sI275765
I3
sI46391
I3
sI46392
I2
sI111930
I2
sI275771
I2
sI177472
I3
sI177475
I2
sI46407
I3
sI46410
I3
sI46412
I2
sI46417
I2
sI79187
I2
sI177496
I2
sI46430
I3
sI177503
I3
sI210276
I2
sI210278
I2
sI111975
I0
sI46448
I3
sI46454
I2
sI46458
I3
sI243068
I2
sI46468
I2
sI29590
I3
sI46470
I2
sI79241
I3
sI112012
I0
sI79246
I0
sI79247
I0
sI79248
I1
sI79253
I0
sI308631
I3
sI79256
I2
sI79262
I3
sI46495
I0
sI79264
I3
sI112035
I3
sI79274
I2
sI46509
I2
sI46518
I1
sI243127
I2
sI243131
I0
sI46531
I1
sI46539
I3
sI46540
I3
sI210382
I0
sI164128
I2
sI570834
I3
sI210387
I1
sI210389
I3
sI210390
I3
sI243160
I2
sI46554
I0
sI243163
I3
sI243164
I2
sI210398
I2
sI210400
I3
sI210402
I3
sI210403
I3
sI210404
I2
sI210405
I2
sI210406
I2
sI112107
I1
sI177649
I3
sI177652
I2
sI112117
I3
sI210423
I3
sI613972
I0
sI112123
I3
sI210428
I3
sI210429
I3
sI210437
I3
sI13554
I3
sI210443
I3
sI196864
I3
sI177683
I2
sI210452
I2
sI210453
I0
sI177688
I0
sI177689
I3
sI46621
I2
sI177698
I1
sI243240
I0
sI46635
I3
sI243248
I3
sI177714
I2
sI177715
I3
sI177716
I2
sI46645
I3
sI46647
I3
sI177720
I0
sI46649
I2
sI46650
I3
sI46651
I2
sI46653
I3
sI46656
I3
sI188000
I0
sI346379
I2
sI46662
I0
sI56929
I3
sI46666
I3
sI112204
I2
sI112205
I3
sI407118
I3
sI13917
I2
sI570976
I0
sI46689
I1
sI144996
I3
sI144998
I3
sI144999
I3
sI308842
I1
sI308843
I3
sI46700
I0
sI46701
I0
sI46704
I1
sI46705
I1
sI46708
I3
sI46711
I0
sI46712
I3
sI46015
I3
sI145020
I2
sI439933
I2
sI46726
I3
sI145039
I3
sI46741
I1
sI276119
I2
sI276121
I3
sI145058
I3
sI46755
I3
sI46757
I2
sI145063
I3
sI145066
I3
sI145067
I0
sI177837
I3
sI145070
I3
sI177843
I3
sI477470
I3
sI160713
I3
sI46784
I2
sI308932
I3
sI308936
I3
sI177872
I0
sI155256
I3
sI177874
I3
sI79574
I3
sI14039
I3
sI46808
I0
sI46810
I3
sI243421
I2
sI243422
I0
sI243424
I3
sI243425
I3
sI177891
I2
sI46820
I3
sI243429
I3
sI243430
I0
sI243439
I2
sI46836
I3
sI24190
I3
sI210682
I1
sI210683
I3
sI243456
I0
sI210691
I3
sI210692
I0
sI210693
I1
sI210694
I3
sI106369
I0
sI243465
I3
sI243466
I2
sI407308
I0
sI112397
I2
sI210704
I3
sI243473
I2
sI14100
I1
sI177941
I0
sI177942
I3
sI243481
I3
sI243482
I1
sI46875
I3
sI46877
I3
sI177953
I1
sI243490
I1
sI46884
I0
sI276261
I3
sI46887
I3
sI243496
I3
sI46890
I3
sI46891
I3
sI243500
I2
sI243501
I3
sI46898
I0
sI243509
I3
sI155273
I3
sI309050
I1
sI309052
I3
sI51509
I3
sI276290
I3
sI488418
I2
sI112471
I3
sI309083
I3
sI112476
I3
sI112477
I3
sI210789
I3
sI148487
I3
sI210804
I3
sI79737
I3
sI79742
I3
sI79747
I0
sI210822
I1
sI80126
I3
sI79762
I3
sI351897
I2
sI243608
I2
sI210842
I3
sI210844
I0
sI188058
I3
sI79775
I2
sI210858
I0
sI178091
I3
sI466589
I0
sI112563
I3
sI95220
I3
sI47041
I0
sI24225
I0
sI178120
I3
sI604105
I2
sI193530
I0
sI178142
I2
sI210922
I3
sI571379
I3
sI210932
I2
sI178165
I2
sI149845
I0
sI57003
I0
sI210952
I3
sI505866
I3
sI210956
I2
sI112656
I3
sI248152
I3
sI178196
I2
sI178206
I3
sI210978
I3
sI47155
I2
sI112704
I3
sI243781
I3
sI178249
I3
sI211020
I2
sI243789
I3
sI178261
I3
sI505942
I3
sI47192
I3
sI47193
I3
sI47194
I2
sI309348
I2
sI171708
I3
sI178283
I3
sI79982
I0
sI79985
I3
sI178291
I2
sI243828
I3
sI178293
I3
sI112758
I3
sI24255
I3
sI145536
I3
sI145538
I3
sI145545
I0
sI145550
I1
sI145551
I3
sI211089
I0
sI211091
I2
sI14487
I0
sI145561
I3
sI112801
I2
sI211118
I0
sI145583
I3
sI145584
I3
sI145586
I2
sI14521
I2
sI407747
I1
sI276676
I2
sI211146
I0
sI112848
I3
sI407765
I3
sI14551
I3
sI276700
I3
sI14557
I2
sI14560
I0
sI243937
I0
sI276708
I3
sI47333
I2
sI571623
I3
sI407786
I2
sI47340
I3
sI47341
I0
sI112881
I3
sI309496
I3
sI47357
I0
sI276734
I3
sI80128
I3
sI14593
I0
sI276738
I3
sI178435
I3
sI47373
I2
sI47382
I0
sI276760
I0
sI178461
I3
sI309537
I3
sI47394
I2
sI309539
I2
sI112934
I0
sI112935
I3
sI18823
I3
sI178481
I3
sI80181
I2
sI178486
I3
sI276791
I2
sI80184
I3
sI47418
I3
sI571709
I3
sI78901
I0
sI80194
I3
sI244035
I0
sI178506
I2
sI112976
I2
sI308280
I0
sI112978
I1
sI112981
I3
sI244065
I3
sI80229
I3
sI178538
I3
sI40679
I3
sI113005
I2
sI80262
I2
sI80265
I1
sI178574
I3
sI47512
I2
sI178587
I3
sI80291
I3
sI80293
I2
sI178599
I3
sI244136
I3
sI178603
I2
sI47532
I1
sI309682
I2
sI47547
I3
sI47552
I2
sI47553
I3
sI47555
I0
sI335606
I3
sI47558
I2
sI47559
I1
sI47563
I2
sI47564
I2
sI47565
I3
sI47566
I1
sI13390
I1
sI47575
I3
sI309726
I0
sI506364
I3
sI178689
I2
sI178702
I3
sI113189
I3
sI408104
I3
sI178732
I1
sI244278
I2
sI242783
I3
sI178749
I0
sI178753
I2
sI178758
I3
sI178762
I2
sI113227
I3
sI178765
I2
sI178767
I2
sI178770
I3
sI178771
I1
sI113237
I0
sI178774
I3
sI113239
I3
sI178778
I1
sI171791
I3
sI178781
I3
sI178784
I2
sI182715
I3
sI28905
I3
sI80492
I3
sI309869
I2
sI178800
I3
sI80497
I3
sI178802
I3
sI178803
I3
sI178804
I2
sI113270
I3
sI178812
I2
sI149952
I3
sI178818
I3
sI309892
I3
sI113292
I3
sI178833
I0
sI244377
I0
sI113311
I3
sI113318
I3
sI80555
I2
sI244398
I3
sI80561
I0
sI80562
I3
sI80564
I2
sI309943
I3
sI433951
I2
sI113340
I2
sI80592
I0
sI111739
I3
sI244458
I2
sI13437
I3
sI277234
I3
sI473851
I2
sI473852
I3
sI473853
I3
sI473857
I0
sI473858
I3
sI473859
I3
sI178955
I3
sI113422
I2
sI473873
I2
sI111747
I0
sI432591
I2
sI80678
I3
sI244525
I3
sI113465
I2
sI179009
I0
sI211780
I3
sI106294
I1
sI441164
I3
sI277325
I3
sI244558
I3
sI473937
I2
sI244563
I2
sI13454
I1
sI277335
I0
sI277341
I0
sI277347
I2
sI277348
I1
sI211816
I2
sI179050
I2
sI211821
I0
sI179059
I2
sI46228
I3
sI179071
I3
sI277384
I3
sI211849
I3
sI179083
I0
sI277390
I3
sI182765
I2
sI179090
I0
sI277412
I3
sI179115
I2
sI310192
I2
sI24393
I3
sI277434
I2
sI277439
I0
sI277441
I3
sI277443
I3
sI277444
I2
sI46241
I0
sI150007
I3
sI211917
I2
sI277460
I0
sI310199
I3
sI277466
I3
sI113627
I3
sI142357
I3
sI113631
I2
sI375782
I2
sI375783
I3
sI179176
I3
sI179179
I2
sI375790
I2
sI277487
I1
sI179184
I0
sI474102
I3
sI15361
I1
sI111787
I2
sI179206
I2
sI179208
I3
sI179218
I2
sI474131
I0
sI113695
I1
sI277536
I0
sI179236
I3
sI244774
I0
sI179239
I3
sI179241
I3
sI179242
I2
sI15403
I0
sI13490
I3
sI277569
I0
sI212034
I0
sI244809
I2
sI310346
I3
sI244811
I2
sI638029
I2
sI244816
I3
sI111800
I3
sI310355
I3
sI46265
I2
sI179289
I0
sI277597
I2
sI441441
I2
sI113762
I3
sI244835
I0
sI310374
I3
sI277608
I3
sI113769
I0
sI113772
I2
sI113774
I3
sI179311
I0
sI242879
I3
sI113792
I0
sI281110
I2
sI638089
I3
sI150039
I2
sI242882
I2
sI638101
I3
sI638105
I2
sI179365
I3
sI244904
I3
sI242887
I2
sI113836
I0
sI244911
I0
sI212147
I1
sI13513
I3
sI212153
I0
sI212156
I3
sI111818
I3
sI179393
I3
sI179397
I2
sI212166
I3
sI277705
I0
sI179402
I0
sI179403
I0
sI179404
I3
sI179407
I3
sI179410
I2
sI179411
I2
sI179412
I0
sI210126
I3
sI179415
I2
sI244953
I3
sI244959
I3
sI244963
I3
sI244966
I2
sI310505
I3
sI244970
I2
sI113902
I3
sI113908
I3
sI15608
I3
sI277761
I3
sI277766
I2
sI277767
I0
sI277770
I3
sI242903
I2
sI277772
I0
sI277779
I2
sI245022
I3
sI179491
I2
sI277796
I0
sI113968
I3
sI277813
I3
sI179511
I2
sI113976
I3
sI150068
I2
sI179516
I3
sI277821
I2
sI179520
I3
sI179522
I3
sI179523
I2
sI13538
I2
sI146768
I2
sI277848
I3
sI277849
I3
sI114011
I3
sI114016
I3
sI114018
I1
sI114021
I2
sI114025
I3
sI15732
I3
sI114044
I3
sI310659
I3
sI150081
I3
sI40855
I3
sI212366
I3
sI277905
I3
sI212370
I3
sI114068
I3
sI212377
I3
sI114076
I3
sI408994
I2
sI245156
I2
sI212389
I3
sI409000
I2
sI245161
I3
sI409003
I2
sI409005
I3
sI277935
I3
sI277936
I0
sI212416
I3
sI212420
I2
sI212429
I0
sI212433
I0
sI40695
I3
sI114158
I0
sI212470
I3
sI212472
I2
sI441871
I3
sI212500
I2
sI212511
I3
sI212512
I1
sI15905
I2
sI474658
I2
sI114211
I1
sI114212
I3
sI245287
I0
sI212520
I3
sI114218
I2
sI474668
I3
sI114222
I3
sI474671
I2
sI474672
I2
sI474673
I3
sI310836
I2
sI210185
I3
sI474680
I2
sI179769
I3
sI474682
I3
sI179772
I2
sI179773
I3
sI179774
I3
sI15938
I0
sI245315
I3
sI179783
I3
sI409161
I0
sI179788
I3
sI46349
I2
sI179792
I3
sI179793
I3
sI179795
I2
sI275726
I3
sI179798
I2
sI114268
I3
sI114270
I1
sI179810
I3
sI179817
I0
sI179818
I2
sI450493
I3
sI474736
I3
sI179828
I3
sI212598
I0
sI297579
I2
sI179845
I2
sI278153
I3
sI275735
I2
sI166509
I2
sI638612
I3
sI638613
I3
sI212630
I1
sI179866
I2
sI114333
I2
sI114337
I3
sI212643
I3
sI212644
I3
sI212645
I2
sI245422
I2
sI245423
I3
sI179891
I3
sI179893
I2
sI245433
I1
sI114364
I3
sI179901
I0
sI245438
I3
sI281205
I3
sI114368
I3
sI343757
I0
sI214397
I3
sI212697
I0
sI311003
I2
sI212702
I3
sI311008
I0
sI311009
I1
sI199291
I2
sI212708
I3
sI212714
I2
sI212715
I2
sI343797
I2
sI278284
I3
sI278285
I1
sI245526
I3
sI245530
I3
sI212767
I0
sI46384
I2
sI212770
I0
sI212772
I1
sI114475
I2
sI245555
I1
sI182921
I3
sI638778
I2
sI114492
I3
sI35466
I3
sI278338
I0
sI114499
I0
sI245572
I2
sI278341
I2
sI311111
I2
sI212813
I3
sI212814
I2
sI212815
I1
sI79160
I3
sI212819
I0
sI16218
I2
sI245599
I1
sI16230
I3
sI155623
I2
sI180076
I2
sI180077
I3
sI114558
I2
sI212863
I3
sI212865
I3
sI212866
I3
sI212867
I2
sI212870
I0
sI212873
I1
sI212875
I2
sI212879
I2
sI212881
I3
sI46403
I3
sI147351
I3
sI212892
I3
sI212893
I2
sI180126
I3
sI212896
I0
sI16292
I3
sI180134
I3
sI40945
I2
sI114601
I3
sI16300
I3
sI199325
I3
sI212915
I3
sI278473
I2
sI376780
I0
sI35492
I1
sI114650
I2
sI114651
I2
sI16351
I3
sI212960
I3
sI40955
I2
sI180197
I1
sI114664
I3
sI212970
I1
sI35495
I1
sI114672
I2
sI114680
I2
sI114688
I2
sI180236
I3
sI213005
I0
sI35502
I3
sI573463
I2
sI114715
I3
sI114724
I3
sI16428
I3
sI182962
I3
sI180270
I0
sI114735
I3
sI114737
I1
sI180274
I3
sI114742
I3
sI114746
I0
sI180283
I2
sI180284
I1
sI180292
I3
sI213061
I3
sI114762
I1
sI180302
I2
sI114769
I3
sI150201
I0
sI16475
I3
sI114789
I3
sI114790
I2
sI114792
I3
sI114794
I3
sI180332
I3
sI16493
I3
sI213106
I0
sI49269
I0
sI213111
I2
sI16511
I2
sI114816
I3
sI114817
I1
sI114822
I1
sI147594
I2
sI114827
I3
sI180364
I3
sI193901
I3
sI147600
I3
sI147601
I3
sI166595
I0
sI147614
I3
sI147616
I2
sI639150
I2
sI213167
I3
sI213183
I3
sI213184
I2
sI442575
I3
sI409816
I3
sI111994
I3
sI573663
I0
sI361717
I1
sI177532
I3
sI35463
I2
sI147717
I2
sI147726
I3
sI147729
I3
sI114963
I1
sI147732
I2
sI147733
I1
sI147735
I2
sI114971
I3
sI166618
I2
sI278815
I3
sI16678
I2
sI278823
I3
sI49451
I3
sI278831
I3
sI213299
I1
sI278838
I3
sI278839
I3
sI278840
I0
sI278842
I3
sI278844
I1
sI115006
I1
sI278848
I2
sI213317
I2
sI213319
I0
sI278856
I3
sI278857
I2
sI278863
I2
sI278864
I0
sI278865
I1
sI278866
I3
sI278867
I2
sI35556
I3
sI24634
I1
sI573793
I2
sI442729
I3
sI442735
I2
sI213366
I2
sI106559
I2
sI115068
I0
sI278917
I0
sI49543
I3
sI188233
I2
sI49562
I0
sI410015
I3
sI410017
I3
sI49571
I3
sI147877
I2
sI246187
I2
sI49585
I3
sI49586
I1
sI246201
I1
sI31318
I3
sI115143
I2
sI246218
I3
sI35575
I0
sI166648
I0
sI467022
I0
sI115160
I0
sI213470
I2
sI115171
I1
sI150268
I3
sI213482
I3
sI213483
I3
sI188498
I2
sI213486
I2
sI147951
I2
sI115184
I1
sI213489
I0
sI213490
I3
sI213493
I3
sI147958
I2
sI147959
I2
sI147960
I3
sI41044
I2
sI213498
I2
sI213499
I3
sI213500
I2
sI213501
I0
sI213502
I3
sI213504
I1
sI508421
I2
sI188503
I3
sI147980
I2
sI49677
I0
sI508431
I2
sI49692
I2
sI188506
I0
sI246316
I2
sI49709
I3
sI49711
I3
sI410160
I2
sI115253
I3
sI246331
I3
sI246332
I0
sI279104
I3
sI279105
I3
sI115266
I3
sI279107
I2
sI115268
I1
sI279109
I0
sI279110
I0
sI279116
I2
sI41058
I2
sI215823
I3
sI193978
I3
sI115297
I3
sI41062
I3
sI443002
I3
sI213627
I2
sI115330
I0
sI41067
I3
sI279172
I0
sI279173
I2
sI279175
I1
sI279178
I2
sI279181
I0
sI246414
I2
sI213649
I0
sI541330
I2
sI213653
I0
sI246422
I1
sI49825
I0
sI246438
I0
sI73841
I3
sI49833
I3
sI49836
I2
sI115373
I3
sI115377
I2
sI213682
I2
sI213684
I1
sI49847
I3
sI213688
I3
sI148153
I2
sI49851
I3
sI213694
I3
sI213695
I3
sI115392
I2
sI213699
I2
sI49860
I2
sI213702
I2
sI213704
I2
sI49866
I3
sI213707
I2
sI213711
I2
sI213712
I2
sI213714
I3
sI52004
I3
sI49885
I3
sI213729
I2
sI303227
I3
sI115429
I3
sI213737
I0
sI213743
I3
sI115440
I2
sI213341
I3
sI117545
I3
sI574200
I3
sI410361
I3
sI46549
I2
sI79320
I3
sI12574
I0
sI49939
I2
sI49940
I3
sI2862
I2
sI246552
I2
sI115488
I3
sI115489
I3
sI181029
I3
sI115495
I3
sI213801
I3
sI246571
I3
sI213805
I2
sI246575
I2
sI213809
I3
sI49970
I3
sI213812
I3
sI213814
I3
sI128235
I0
sI410424
I3
sI213820
I3
sI181054
I3
sI213823
I3
sI275936
I3
sI188555
I3
sI115525
I3
sI148294
I3
sI213831
I2
sI148297
I1
sI181066
I2
sI181069
I1
sI148302
I3
sI181071
I3
sI181073
I0
sI213845
I0
sI148314
I3
sI148315
I0
sI279392
I2
sI35643
I3
sI148325
I1
sI106641
I3
sI148329
I0
sI148331
I1
sI232253
I0
sI213873
I3
sI541557
I2
sI541558
I2
sI17276
I0
sI213885
I2
sI50047
I2
sI50048
I0
sI115585
I0
sI50051
I1
sI50055
I3
sI50065
I1
sI17299
I2
sI181140
I3
sI213912
I2
sI279449
I0
sI50074
I2
sI213916
I3
sI17312
I3
sI213922
I2
sI279461
I3
sI607148
I3
sI279477
I2
sI50104
I0
sI17343
I3
sI279489
I3
sI279490
I2
sI181189
I3
sI181190
I2
sI181192
I0
sI181194
I2
sI112119
I0
sI181197
I0
sI181198
I1
sI17361
I3
sI181203
I3
sI181205
I2
sI115670
I2
sI181208
I0
sI181211
I3
sI181215
I1
sI115681
I2
sI181227
I3
sI181229
I0
sI50160
I0
sI115700
I3
sI181242
I0
sI148483
I1
sI181254
I2
sI115719
I2
sI181258
I3
sI115723
I2
sI115724
I0
sI50189
I2
sI181262
I2
sI302823
I2
sI148974
I0
sI115739
I0
sI181276
I0
sI410656
I3
sI516273
I3
sI181294
I0
sI181297
I3
sI181312
I3
sI17480
I3
sI181333
I2
sI115798
I0
sI181347
I3
sI253120
I2
sI181357
I2
sI181362
I2
sI210451
I3
sI17525
I2
sI17528
I2
sI181372
I3
sI181375
I2
sI181377
I1
sI181379
I3
sI115847
I2
sI275992
I3
sI115862
I0
sI115863
I2
sI50345
I0
sI279728
I2
sI181425
I3
sI28955
I1
sI181433
I1
sI17600
I3
sI50373
I3
sI574662
I3
sI210466
I0
sI17620
I3
sI50395
I3
sI35503
I0
sI215931
I0
sI19327
I3
sI312585
I3
sI115980
I2
sI50449
I3
sI161328
I2
sI17703
I0
sI50473
I2
sI181548
I3
sI243250
I3
sI279855
I0
sI279861
I3
sI148790
I2
sI148792
I3
sI279865
I3
sI279866
I1
sI150410
I0
sI279873
I3
sI279874
I1
sI214340
I1
sI181574
I3
sI279879
I3
sI214344
I2
sI17749
I2
sI148827
I3
sI148828
I3
sI148829
I0
sI148830
I2
sI148832
I0
sI17761
I0
sI17762
I0
sI181619
I1
sI116085
I0
sI41194
I2
sI247169
I0
sI303339
I2
sI431589
I2
sI17806
I0
sI181654
I1
sI214426
I0
sI41199
I2
sI148904
I3
sI17836
I2
sI148909
I2
sI214449
I2
sI214450
I0
sI214452
I3
sI17848
I2
sI17855
I2
sI570956
I3
sI17866
I2
sI17869
I1
sI50638
I3
sI17875
I3
sI148948
I2
sI116183
I3
sI148955
I2
sI17887
I2
sI50657
I3
sI50661
I2
sI280038
I2
sI35751
I3
sI50669
I1
sI280046
I0
sI303360
I3
sI35513
I1
sI149006
I2
sI116243
I1
sI116253
I0
sI181793
I0
sI149031
I3
sI214570
I2
sI144989
I3
sI443966
I3
sI177760
I0
sI280134
I3
sI411207
I0
sI181842
I0
sI214617
I3
sI476766
I3
sI444000
I3
sI476769
I0
sI476771
I2
sI181866
I2
sI145002
I3
sI52160
I1
sI575118
I3
sI149140
I3
sI181910
I1
sI181911
I1
sI214685
I3
sI149150
I3
sI181920
I1
sI181921
I0
sI38792
I0
sI149173
I3
sI149174
I3
sI30324
I2
sI280251
I3
sI280260
I2
sI280276
I2
sI149211
I0
sI214748
I1
sI181984
I3
sI149219
I3
sI46716
I2
sI181995
I2
sI181997
I3
sI181998
I0
sI18164
I0
sI149258
I3
sI149260
I1
sI476945
I2
sI444186
I3
sI444187
I3
sI280350
I3
sI149279
I3
sI161414
I3
sI345905
I2
sI182072
I3
sI182075
I3
sI161420
I0
sI116555
I0
sI149334
I3
sI34433
I0
sI182106
I0
sI182107
I2
sI477023
I2
sI149345
I3
sI214899
I3
sI280438
I0
sI182138
I3
sI116603
I0
sI346000
I2
sI346004
I3
sI280472
I3
sI280476
I2
sI30362
I3
sI116642
I0
sI280483
I2
sI280485
I3
sI214953
I3
sI280496
I2
sI182193
I2
sI182195
I0
sI35828
I3
sI214972
I3
sI280510
I2
sI214977
I3
sI214984
I1
sI182223
I3
sI280528
I2
sI182228
I3
sI673749
I2
sI18395
I2
sI215005
I2
sI145061
I2
sI411616
I3
sI411617
I3
sI477167
I3
sI346111
I3
sI346114
I1
sI116750
I0
sI641042
I3
sI116756
I0
sI641045
I3
sI346142
I3
sI116772
I2
sI215079
I3
sI215085
I3
sI18483
I2
sI116788
I0
sI280638
I3
sI18500
I3
sI18501
I3
sI18506
I0
sI149583
I3
sI149584
I0
sI41315
I3
sI18518
I2
sI18520
I3
sI18521
I3
sI18533
I0
sI52243
I3
sI18548
I2
sI18549
I2
sI51321
I2
sI215166
I3
sI215168
I1
sI215170
I2
sI116871
I3
sI116872
I3
sI116874
I2
sI51341
I3
sI18576
I0
sI51348
I3
sI116885
I3
sI146830
I3
sI18590
I2
sI51360
I0
sI41329
I2
sI51371
I0
sI182456
I3
sI215226
I3
sI314399
I0
sI18628
I0
sI24625
I3
sI18636
I3
sI215245
I3
sI51409
I3
sI18653
I0
sI51423
I0
sI18664
I3
sI18673
I3
sI52265
I3
sI215299
I2
sI215307
I1
sI215311
I1
sI18705
I2
sI280862
I2
sI477471
I3
sI477472
I2
sI477473
I3
sI477474
I3
sI477475
I0
sI182567
I3
sI543020
I3
sI18733
I2
sI18734
I0
sI538333
I3
sI35891
I3
sI477493
I2
sI477498
I1
sI248123
I3
sI280896
I1
sI313668
I2
sI215369
I3
sI280906
I3
sI182605
I2
sI182606
I3
sI52280
I0
sI172430
I3
sI248150
I3
sI248151
I3
sI280920
I2
sI51545
I0
sI248154
I0
sI149855
I3
sI18784
I2
sI51553
I2
sI280936
I2
sI248169
I3
sI215405
I3
sI265277
I3
sI215411
I3
sI215412
I2
sI215415
I2
sI215418
I2
sI215419
I2
sI18814
I3
sI18816
I3
sI18820
I3
sI280965
I3
sI96646
I3
sI149895
I2
sI280968
I2
sI280969
I1
sI24983
I1
sI280972
I3
sI280976
I2
sI280977
I3
sI149909
I0
sI139673
I3
sI412056
I3
sI19524
I3
sI477595
I3
sI149917
I2
sI290868
I3
sI18848
I3
sI18853
I3
sI18859
I0
sI35544
I3
sI281012
I2
sI106910
I3
sI281019
I3
sI149949
I2
sI149950
I3
sI510399
I2
sI18880
I3
sI19531
I3
sI149962
I3
sI18904
I3
sI18913
I2
sI18923
I3
sI18925
I2
sI281079
I3
sI182776
I3
sI281085
I2
sI281086
I3
sI215551
I2
sI18945
I3
sI150021
I1
sI182791
I2
sI150024
I3
sI150025
I3
sI150026
I0
sI281099
I3
sI150038
I2
sI281111
I3
sI150041
I3
sI346651
I0
sI150045
I2
sI150046
I3
sI150047
I3
sI215584
I3
sI150064
I3
sI150066
I1
sI182836
I2
sI182839
I2
sI19000
I0
sI182843
I1
sI182847
I3
sI150080
I3
sI182849
I3
sI150082
I3
sI150083
I2
sI150084
I2
sI281158
I0
sI150091
I2
sI19020
I3
sI150093
I2
sI543312
I3
sI150119
I3
sI510569
I1
sI182892
I2
sI182893
I3
sI248437
I1
sI281206
I0
sI281207
I3
sI543358
I3
sI51841
I3
sI182917
I1
sI248454
I2
sI248457
I0
sI182923
I3
sI182925
I2
sI182928
I3
sI215711
I0
sI150176
I3
sI215723
I3
sI215725
I3
sI489245
I2
sI71560
I2
sI35955
I3
sI117432
I2
sI183412
I3
sI150203
I0
sI150209
I0
sI150210
I1
sI150211
I3
sI150213
I2
sI210721
I3
sI150217
I1
sI215766
I0
sI215768
I0
sI243492
I2
sI150236
I1
sI150239
I3
sI150240
I2
sI150242
I1
sI150243
I3
sI215780
I3
sI150248
I2
sI150250
I2
sI281323
I3
sI51949
I1
sI51953
I3
sI281330
I3
sI150260
I2
sI215798
I3
sI161035
I3
sI281338
I0
sI150267
I2
sI215804
I0
sI183039
I3
sI150272
I3
sI150275
I3
sI46892
I3
sI46893
I3
sI183059
I0
sI150292
I0
sI150296
I3
sI150297
I0
sI150299
I3
sI19232
I3
sI183076
I2
sI117541
I2
sI150313
I3
sI19243
I0
sI150316
I3
sI150320
I2
sI19249
I3
sI150322
I3
sI150323
I3
sI117556
I3
sI150327
I3
sI150328
I3
sI150330
I2
sI183101
I3
sI19264
I2
sI38831
I2
sI46469
I0
sI19277
I0
sI19281
I2
sI19285
I3
sI52054
I3
sI74213
I2
sI19297
I3
sI80295
I3
sI19310
I2
sI248689
I0
sI167059
I1
sI150388
I3
sI150389
I0
sI183158
I3
sI215927
I2
sI150393
I0
sI215930
I0
sI150395
I2
sI150396
I3
sI199829
I2
sI150401
I0
sI150407
I0
sI248714
I0
sI19344
I1
sI183185
I3
sI167065
I3
sI19352
I2
sI199834
I2
sI38834
I3
sI478112
I3
sI52133
I3
sI19372
I3
sI167069
I3
sI19380
I0
sI68766
I2
sI150464
I1
sI19393
I1
sI150466
I3
sI19403
I1
sI150480
I3
sI281554
I3
sI281558
I2
sI107001
I1
sI281560
I0
sI150491
I3
sI68773
I0
sI150498
I3
sI19427
I2
sI19434
I1
sI19435
I1
sI19436
I3
sI150509
I2
sI19439
I3
sI429224
I0
sI150517
I3
sI150518
I3
sI30548
I2
sI298157
I3
sI139779
I2
sI183321
I3
sI339990
I2
sI281628
I2
sI488298
I3
sI183327
I0
sI19488
I0
sI19489
I3
sI183331
I3
sI150565
I0
sI314409
I2
sI150573
I2
sI150574
I3
sI183346
I3
sI183347
I3
sI183348
I1
sI183350
I2
sI19511
I3
sI19512
I3
sI19515
I1
sI150589
I3
sI150590
I3
sI150591
I3
sI150596
I2
sI183365
I2
sI478391
I2
sI19533
I2
sI281679
I3
sI150613
I0
sI339992
I3
sI412762
I3
sI156175
I1
sI150632
I2
sI150641
I3
sI150644
I0
sI183414
I3
sI150647
I2
sI150649
I2
sI36031
I2
sI183425
I3
sI30572
I3
sI36034
I3
sI150670
I3
sI183440
I3
sI172568
I3
sI281747
I2
sI183449
I3
sI281760
I3
sI281762
I1
sI281763
I2
sI183462
I3
sI150707
I0
sI478390
I3
sI183479
I3
sI478393
I3
sI183482
I2
sI183484
I3
sI183491
I2
sI183497
I3
sI183498
I2
sI150731
I3
sI183500
I3
sI150735
I3
sI150737
I3
sI478418
I2
sI150739
I3
sI150745
I2
sI150746
I2
sI150747
I1
sI183519
I3
sI183521
I2
sI150754
I2
sI249059
I2
sI183530
I0
sI150764
I3
sI36050
I0
sI478447
I2
sI281840
I3
sI150769
I2
sI150770
I0
sI281844
I1
sI161662
I2
sI183542
I2
sI281847
I0
sI183544
I3
sI183547
I0
sI183548
I0
sI25131
I3
sI281861
I3
sI281862
I0
sI281864
I2
sI52490
I2
sI150809
I2
sI183585
I3
sI150824
I3
sI150831
I2
sI150832
I0
sI150833
I3
sI412981
I3
sI249057
I1
sI281936
I2
sI52563
I2
sI150869
I3
sI150872
I2
sI41534
I1
sI183670
I0
sI249225
I2
sI150922
I2
sI314605
I3
sI576912
I3
sI183701
I1
sI282009
I2
sI282011
I3
sI282012
I2
sI282015
I0
sI19696
I3
sI183715
I3
sI118182
I3
sI445873
I3
sI150968
I3
sI150969
I3
sI238529
I3
sI19908
I2
sI282060
I2
sI242894
I3
sI30627
I3
sI445908
I3
sI30628
I3
sI151009
I3
sI413155
I3
sI151050
I3
sI151058
I2
sI577045
I2
sI151063
I3
sI118298
I2
sI151075
I3
sI151079
I3
sI167609
I0
sI282168
I3
sI8800
I3
sI314947
I3
sI282182
I3
sI118346
I3
sI314966
I0
sI118359
I0
sI118390
I2
sI243649
I2
sI282251
I2
sI282253
I2
sI20118
I2
sI315036
I2
sI20125
I3
sI118433
I2
sI282274
I2
sI282276
I0
sI282278
I0
sI282281
I2
sI178119
I3
sI282284
I2
sI282286
I3
sI282287
I3
sI282292
I3
sI112585
I3
sI118049
I0
sI249550
I2
sI41596
I0
sI118508
I0
sI30675
I2
sI193803
I2
sI118528
I2
sI118530
I2
sI478987
I0
sI478988
I2
sI478997
I3
sI184091
I3
sI184092
I2
sI184098
I2
sI184100
I3
sI184105
I2
sI479020
I0
sI184114
I2
sI282420
I3
sI184132
I3
sI71599
I0
sI282438
I2
sI118601
I3
sI184138
I2
sI118616
I3
sI30692
I3
sI315227
I3
sI282460
I0
sI282461
I3
sI282467
I2
sI20325
I3
sI282470
I2
sI282471
I3
sI282472
I3
sI20329
I3
sI282474
I2
sI282475
I3
sI41618
I1
sI41621
I3
sI249761
I2
sI20396
I3
sI20401
I2
sI7226
I2
sI118713
I2
sI118730
I3
sI20445
I3
sI20446
I3
sI71605
I0
sI184321
I0
sI20482
I3
sI298327
I3
sI380949
I1
sI179517
I3
sI118822
I3
sI184360
I2
sI191631
I2
sI282671
I0
sI282674
I3
sI282676
I3
sI282678
I3
sI282680
I1
sI184377
I3
sI118843
I3
sI446525
I2
sI118848
I1
sI282689
I2
sI118850
I3
sI282691
I3
sI315460
I2
sI189111
I2
sI282706
I1
sI282713
I3
sI118879
I3
sI282723
I0
sI282731
I3
sI41661
I2
sI118896
I2
sI118897
I3
sI184449
I3
sI118929
I2
sI282770
I0
sI41667
I3
sI282774
I1
sI282775
I3
sI210184
I0
sI643232
I2
sI20645
I0
sI30749
I3
sI24693
I0
sI63520
I3
sI281974
I3
sI184520
I3
sI184521
I3
sI184522
I3
sI178210
I3
sI184533
I2
sI20694
I0
sI184536
I2
sI119005
I0
sI610533
I3
sI119014
I2
sI184554
I1
sI20720
I2
sI348408
I3
sI184576
I3
sI20747
I1
sI184590
I2
sI184591
I3
sI184610
I2
sI20771
I2
sI545060
I3
sI119079
I1
sI184623
I3
sI184629
I0
sI20790
I3
sI281993
I0
sI119100
I3
sI184645
I3
sI184653
I2
sI119118
I0
sI281999
I0
sI249237
I3
sI156727
I3
sI36253
I2
sI184770
I3
sI189178
I3
sI119273
I2
sI578032
I2
sI184821
I3
sI184822
I2
sI315903
I3
sI309334
I3
sI119305
I0
sI414232
I3
sI414245
I2
sI315949
I1
sI119351
I0
sI30820
I1
sI21123
I2
sI119435
I2
sI314820
I3
sI69061
I2
sI184999
I3
sI185000
I3
sI21161
I3
sI21164
I2
sI292978
I3
sI243827
I3
sI185014
I2
sI243829
I2
sI166557
I0
sI512723
I3
sI512726
I0
sI21213
I3
sI512734
I0
sI167376
I3
sI512740
I0
sI119525
I3
sI185067
I3
sI500520
I3
sI445907
I3
sI119541
I3
sI119542
I3
sI41769
I3
sI185123
I3
sI185143
I2
sI189237
I0
sI185152
I2
sI293003
I3
sI30861
I3
sI47246
I3
sI185175
I3
sI47249
I1
sI185196
I2
sI185236
I0
sI119702
I3
sI21410
I2
sI21414
I2
sI447413
I3
sI447417
I2
sI21446
I2
sI21450
I3
sI119760
I2
sI185300
I0
sI480213
I2
sI185336
I3
sI185342
I2
sI447488
I3
sI172888
I2
sI119838
I3
sI119839
I2
sI185386
I1
sI185388
I0
sI185389
I3
sI38907
I0
sI513086
I2
sI414788
I1
sI414792
I2
sI414794
I3
sI30905
I3
sI185432
I0
sI185433
I0
sI21613
I0
sI424128
I3
sI414854
I3
sI414856
I3
sI21645
I1
sI211139
I2
sI185518
I2
sI30920
I3
sI25462
I0
sI303913
I3
sI185554
I3
sI24728
I3
sI303994
I0
sI21726
I2
sI293074
I3
sI185591
I2
sI21753
I2
sI251131
I2
sI46552
I0
sI21765
I3
sI120076
I2
sI21776
I3
sI120082
I3
sI316695
I2
sI41097
I1
sI185625
I3
sI185636
I2
sI185644
I1
sI120110
I0
sI276701
I0
sI415024
I3
sI120116
I3
sI74633
I3
sI120132
I3
sI21834
I3
sI120148
I0
sI21849
I3
sI21853
I0
sI185699
I3
sI185701
I3
sI185703
I3
sI185704
I2
sI185705
I2
sI251243
I3
sI251244
I3
sI185709
I0
sI41100
I2
sI251256
I2
sI172949
I2
sI304022
I0
sI415113
I0
sI107415
I0
sI489710
I3
sI21914
I3
sI120221
I2
sI178584
I1
sI185798
I3
sI178424
I3
sI21982
I3
sI96509
I0
sI9128
I3
sI129278
I3
sI251384
I3
sI309505
I2
sI480778
I0
sI185867
I2
sI178434
I1
sI22045
I2
sI480799
I3
sI185908
I1
sI101982
I2
sI185918
I3
sI58294
I0
sI415308
I3
sI185945
I3
sI185949
I3
sI120428
I0
sI22125
I1
sI22128
I3
sI30995
I0
sI185974
I3
sI30996
I3
sI317062
I2
sI579207
I2
sI96540
I0
sI680905
I2
sI480964
I3
sI186054
I1
sI169865
I0
sI22234
I0
sI317156
I2
sI186090
I3
sI120560
I2
sI40022
I3
sI31019
I3
sI396929
I3
sI186121
I3
sI22283
I3
sI415500
I3
sI415501
I2
sI120598
I1
sI186136
I0
sI69252
I3
sI22305
I1
sI22313
I3
sI120621
I1
sI415539
I2
sI47413
I2
sI22337
I3
sI69259
I1
sI186184
I2
sI178488
I2
sI22355
I3
sI317277
I2
sI22386
I3
sI14658
I0
sI186256
I0
sI74734
I2
sI22428
I2
sI120737
I2
sI22434
I0
sI186284
I3
sI40521
I3
sI118434
I3
sI25594
I2
sI317408
I3
sI74751
I3
sI31302
I3
sI120845
I2
sI22543
I0
sI22544
I0
sI22545
I2
sI251925
I2
sI72767
I3
sI282295
I2
sI120915
I3
sI120917
I3
sI120919
I2
sI562685
I3
sI186463
I3
sI42003
I2
sI317565
I3
sI317567
I2
sI186497
I3
sI317580
I3
sI178541
I3
sI96623
I1
sI186524
I3
sI186531
I3
sI129393
I3
sI22700
I1
sI22706
I0
sI293235
I2
sI22714
I3
sI121044
I3
sI186592
I0
sI22764
I3
sI121069
I2
sI121080
I3
sI186621
I3
sI22785
I3
sI121093
I2
sI156716
I3
sI317717
I2
sI121115
I2
sI448805
I1
sI448806
I2
sI22824
I2
sI186667
I3
sI186668
I3
sI186669
I2
sI22831
I3
sI186673
I2
sI22834
I3
sI186675
I3
sI186676
I0
sI186677
I3
sI186687
I3
sI317771
I3
sI317775
I3
sI186705
I1
sI448851
I3
sI22894
I3
sI481656
I3
sI252283
I0
sI186748
I2
sI121225
I2
sI612747
I3
sI22924
I1
sI22928
I3
sI22929
I3
sI107588
I3
sI481694
I2
sI22952
I3
sI350634
I2
sI416175
I1
sI22962
I1
sI186803
I2
sI22964
I3
sI186805
I3
sI186806
I1
sI22969
I0
sI481722
I2
sI186811
I1
sI186813
I3
sI186815
I3
sI22978
I1
sI121286
I3
sI88521
I3
sI22988
I3
sI22991
I3
sI22994
I2
sI186837
I2
sI22998
I1
sI23007
I3
sI23016
I2
sI23019
I2
sI317932
I3
sI23021
I1
sI23022
I3
sI248453
I2
sI317937
I3
sI23027
I1
sI23030
I3
sI23034
I2
sI186880
I3
sI23051
I2
sI36610
I2
sI23054
I3
sI23065
I3
sI23069
I3
sI23070
I3
sI23072
I0
sI23073
I3
sI23074
I2
sI23075
I3
sI32411
I3
sI186918
I2
sI23080
I1
sI23081
I3
sI186923
I2
sI23091
I3
sI36617
I1
sI23099
I3
sI23104
I0
sI186948
I2
sI186951
I3
sI23114
I1
sI23115
I3
sI23117
I0
sI154192
I3
sI23127
I3
sI186968
I3
sI23133
I3
sI23134
I3
sI186975
I0
sI244155
I2
sI23141
I1
sI23147
I1
sI23148
I0
sI186991
I3
sI154228
I3
sI154229
I3
sI154230
I3
sI154232
I3
sI154233
I2
sI154235
I0
sI154238
I3
sI154239
I3
sI23170
I0
sI187012
I2
sI154245
I3
sI154246
I2
sI424130
I3
sI187017
I3
sI23182
I2
sI154256
I3
sI154257
I3
sI23186
I3
sI154259
I2
sI154261
I1
sI23190
I0
sI154264
I3
sI416409
I1
sI154267
I3
sI154268
I2
sI154271
I3
sI154273
I2
sI154276
I3
sI154280
I0
sI449205
I3
sI23225
I2
sI58485
I2
sI449229
I2
sI449233
I3
sI23253
I3
sI23257
I2
sI23264
I0
sI23265
I1
sI23268
I3
sI187109
I2
sI23271
I2
sI252650
I2
sI23275
I2
sI23282
I3
sI23283
I3
sI23284
I3
sI23286
I0
sI23288
I0
sI23291
I0
sI449276
I3
sI23293
I0
sI252672
I1
sI252677
I0
sI23305
I2
sI350986
I3
sI23307
I1
sI187150
I2
sI23311
I3
sI23314
I0
sI23317
I2
sI121633
I3
sI514850
I3
sI23333
I3
sI23334
I3
sI121639
I0
sI121642
I3
sI187189
I3
sI23352
I0
sI20276
I2
sI23354
I2
sI23355
I0
sI23358
I3
sI154433
I2
sI23369
I3
sI23370
I0
sI23371
I3
sI351055
I3
sI23377
I3
sI351063
I2
sI23412
I0
sI23415
I0
sI23425
I2
sI187266
I0
sI23431
I0
sI23435
I3
sI23438
I2
sI187279
I2
sI23445
I1
sI187287
I0
sI482200
I0
sI88986
I2
sI23453
I1
sI169906
I1
sI23463
I0
sI23464
I2
sI140445
I2
sI187333
I2
sI187336
I3
sI23499
I0
sI449484
I1
sI187344
I2
sI23507
I3
sI449492
I3
sI449494
I3
sI23512
I0
sI187360
I2
sI23528
I2
sI23538
I2
sI89079
I3
sI23563
I0
sI121872
I3
sI23571
I3
sI23574
I2
sI23575
I0
sI121881
I1
sI23579
I3
sI318493
I3
sI23587
I3
sI252969
I2
sI252972
I2
sI108808
I0
sI318535
I3
sI105535
I0
sI23628
I3
sI23629
I3
sI482397
I3
sI89185
I3
sI121960
I2
sI69479
I2
sI23660
I3
sI282473
I3
sI23675
I2
sI23678
I3
sI449666
I3
sI23686
I1
sI23688
I3
sI23692
I0
sI384142
I0
sI23697
I3
sI562721
I2
sI318615
I2
sI89240
I3
sI318618
I0
sI253088
I3
sI89251
I0
sI23720
I3
sI187563
I1
sI23724
I0
sI253103
I0
sI23728
I0
sI23732
I3
sI89270
I0
sI23736
I2
sI23740
I0
sI122047
I3
sI122048
I3
sI253121
I0
sI122055
I3
sI23755
I2
sI23760
I2
sI23765
I3
sI23772
I1
sI23779
I2
sI23780
I3
sI23781
I3
sI23782
I3
sI23783
I3
sI154856
I0
sI23787
I3
sI23788
I0
sI23792
I2
sI23793
I1
sI23794
I1
sI154867
I3
sI23806
I2
sI56576
I3
sI23813
I1
sI515337
I2
sI515338
I3
sI23819
I0
sI23823
I3
sI187666
I0
sI187668
I3
sI187669
I2
sI56600
I2
sI23837
I3
sI154911
I2
sI23849
I2
sI23853
I0
sI154928
I2
sI23864
I2
sI23866
I0
sI154941
I3
sI154949
I3
sI154950
I3
sI23881
I3
sI23882
I3
sI56654
I0
sI23891
I3
sI384343
I0
sI318809
I2
sI56678
I3
sI23916
I2
sI56686
I2
sI23921
I3
sI23922
I3
sI384374
I3
sI23927
I2
sI384376
I2
sI23930
I3
sI23931
I3
sI23932
I1
sI23933
I2
sI23934
I0
sI23936
I2
sI89475
I3
sI89476
I2
sI23947
I3
sI23949
I0
sI23951
I2
sI23954
I2
sI384407
I0
sI31300
I3
sI384413
I2
sI25840
I3
sI286117
I0
sI286119
I0
sI155050
I3
sI75447
I0
sI155052
I2
sI102301
I2
sI23984
I1
sI96840
I2
sI286131
I3
sI23988
I3
sI23991
I2
sI155066
I2
sI23997
I3
sI23999
I3
sI24000
I1
sI24001
I0
sI24002
I2
sI24003
I0
sI24004
I3
sI24006
I2
sI282529
I0
sI24011
I3
sI89548
I0
sI24013
I3
sI450002
I3
sI298915
I2
sI24020
I2
sI450005
I2
sI24022
I2
sI75001
I2
sI200612
I0
sI450011
I3
sI253410
I2
sI24037
I0
sI24040
I3
sI155122
I0
sI113235
I3
sI155129
I2
sI56829
I1
sI24064
I1
sI113238
I0
sI24077
I3
sI56846
I3
sI25859
I0
sI56852
I0
sI482841
I2
sI24099
I3
sI56868
I3
sI24101
I0
sI69553
I3
sI24104
I1
sI24105
I3
sI36786
I3
sI24114
I2
sI89653
I2
sI24118
I3
sI24122
I2
sI24123
I2
sI56895
I0
sI24130
I3
sI24132
I3
sI24136
I3
sI24138
I2
sI319055
I2
sI24147
I1
sI24148
I3
sI24150
I3
sI24154
I2
sI24155
I1
sI24156
I3
sI24157
I0
sI24159
I2
sI24160
I0
sI24161
I3
sI24162
I3
sI56932
I0
sI24166
I3
sI24167
I3
sI24171
I2
sI155246
I1
sI351860
I0
sI155254
I0
sI24183
I3
sI56952
I3
sI155257
I2
sI155260
I3
sI155262
I3
sI56961
I0
sI351875
I3
sI309868
I2
sI56972
I3
sI24205
I2
sI155278
I3
sI24208
I3
sI24209
I3
sI24210
I1
sI24211
I3
sI24212
I3
sI24213
I2
sI188054
I2
sI24216
I3
sI24217
I2
sI351898
I3
sI188060
I3
sI24223
I3
sI56992
I3
sI155297
I2
sI24226
I3
sI24227
I1
sI24228
I3
sI24229
I1
sI24230
I3
sI24234
I3
sI24235
I3
sI188089
I3
sI253631
I3
sI351939
I3
sI24260
I0
sI188114
I3
sI24275
I3
sI155348
I3
sI155350
I3
sI155355
I3
sI57057
I3
sI89827
I3
sI89828
I3
sI57067
I2
sI57071
I3
sI450293
I3
sI57078
I3
sI155384
I3
sI57082
I3
sI351999
I0
sI352003
I1
sI309890
I3
sI57103
I0
sI24336
I3
sI24341
I1
sI352023
I2
sI57114
I3
sI57123
I3
sI57124
I3
sI24368
I1
sI253748
I3
sI24373
I3
sI24374
I2
sI24381
I2
sI24383
I2
sI24385
I3
sI319300
I3
sI188231
I2
sI309900
I3
sI24399
I1
sI24403
I3
sI24405
I3
sI24408
I3
sI24410
I0
sI24411
I3
sI24414
I3
sI24422
I0
sI36840
I3
sI24435
I2
sI24436
I3
sI24439
I3
sI24443
I3
sI24446
I3
sI24448
I0
sI419136
I3
sI24450
I0
sI69611
I3
sI24452
I3
sI24453
I2
sI24454
I1
sI24455
I3
sI24456
I0
sI24459
I2
sI155534
I3
sI24469
I3
sI42308
I3
sI24475
I3
sI155548
I3
sI24484
I3
sI24491
I0
sI24492
I3
sI24493
I3
sI42312
I3
sI24499
I0
sI24500
I3
sI24501
I2
sI24502
I3
sI24503
I1
sI24504
I3
sI36852
I3
sI24506
I3
sI24507
I3
sI24509
I3
sI24516
I2
sI173389
I3
sI24528
I3
sI24531
I3
sI24536
I3
sI155611
I3
sI417759
I2
sI24546
I3
sI24549
I0
sI42321
I3
sI155638
I2
sI155639
I2
sI188413
I2
sI24579
I1
sI24583
I3
sI24590
I3
sI24591
I1
sI24621
I3
sI24622
I3
sI188465
I3
sI188467
I3
sI24630
I3
sI614458
I2
sI24635
I0
sI24655
I3
sI24656
I3
sI24658
I3
sI200718
I3
sI24663
I2
sI24664
I3
sI155738
I2
sI155739
I3
sI451941
I3
sI24676
I2
sI188517
I3
sI352358
I2
sI352365
I1
sI352366
I3
sI188529
I2
sI188531
I3
sI188533
I2
sI24694
I1
sI24698
I0
sI188540
I3
sI24701
I3
sI24705
I3
sI155782
I3
sI352392
I3
sI352394
I2
sI352395
I2
sI188557
I2
sI319631
I2
sI352402
I3
sI352404
I2
sI352408
I2
sI24737
I2
sI24740
I3
sI24741
I0
sI24744
I3
sI24747
I3
sI24751
I3
sI24753
I0
sI24754
I2
sI450740
I2
sI24772
I0
sI24773
I2
sI24780
I3
sI24781
I3
sI31437
I3
sI24788
I1
sI24789
I3
sI24791
I3
sI24792
I3
sI24793
I3
sI24800
I2
sI266279
I3
sI188652
I2
sI24813
I2
sI450812
I0
sI24839
I2
sI155913
I2
sI24843
I3
sI24845
I3
sI24846
I3
sI385299
I3
sI24852
I2
sI24854
I3
sI155936
I1
sI254241
I1
sI319787
I3
sI24886
I1
sI418105
I3
sI24890
I3
sI24899
I3
sI24903
I3
sI319822
I0
sI254289
I0
sI24915
I3
sI418137
I3
sI254308
I2
sI156007
I3
sI156008
I2
sI156013
I3
sI156019
I3
sI24948
I3
sI31465
I1
sI24952
I0
sI173462
I3
sI24970
I3
sI24978
I3
sI315459
I2
sI107929
I3
sI282692
I3
sI306990
I2
sI107930
I3
sI450976
I2
sI25005
I3
sI96852
I2
sI287156
I3
sI25015
I2
sI25018
I1
sI156097
I2
sI156105
I2
sI319975
I2
sI25070
I3
sI25075
I3
sI447107
I2
sI254455
I3
sI287224
I2
sI287226
I2
sI287231
I2
sI287232
I2
sI254472
I1
sI287245
I0
sI26029
I3
sI178947
I3
sI25108
I2
sI25128
I3
sI188971
I1
sI614970
I0
sI25150
I3
sI352833
I3
sI25156
I1
sI25160
I3
sI352842
I3
sI118883
I2
sI287333
I2
sI287334
I2
sI287337
I3
sI287341
I2
sI42429
I1
sI352887
I2
sI352888
I2
sI287353
I2
sI75199
I3
sI189052
I3
sI254608
I3
sI189074
I3
sI189075
I0
sI129817
I2
sI42437
I0
sI25253
I3
sI25255
I0
sI25257
I3
sI25259
I2
sI25260
I3
sI189101
I2
sI352943
I3
sI320183
I3
sI320184
I3
sI320187
I1
sI352968
I0
sI352994
I3
sI254702
I0
sI254704
I0
sI25329
I1
sI25336
I2
sI25338
I3
sI189181
I1
sI243489
I3
sI25347
I2
sI451333
I0
sI189190
I3
sI189192
I2
sI25364
I3
sI25365
I3
sI25366
I0
sI113231
I3
sI25382
I3
sI189918
I3
sI25411
I0
sI25415
I3
sI25416
I2
sI25419
I0
sI25421
I3
sI189283
I2
sI80500
I0
sI156534
I2
sI25465
I3
sI156546
I1
sI156551
I3
sI156553
I1
sI25483
I3
sI156556
I0
sI25496
I2
sI287645
I3
sI25505
I3
sI25515
I2
sI206322
I3
sI25519
I3
sI25521
I3
sI25522
I3
sI25525
I3
sI25526
I3
sI25537
I0
sI25538
I0
sI25540
I1
sI25541
I3
sI25543
I2
sI287689
I2
sI287691
I3
sI25549
I3
sI25550
I0
sI25551
I0
sI25560
I3
sI25563
I1
sI25565
I3
sI25571
I2
sI25572
I3
sI25574
I0
sI25575
I0
sI26108
I3
sI58346
I0
sI25579
I2
sI58351
I2
sI25584
I3
sI58354
I3
sI25587
I3
sI58358
I3
sI156664
I1
sI58362
I2
sI25595
I3
sI25597
I2
sI25598
I0
sI254975
I3
sI25600
I0
sI195414
I2
sI25611
I2
sI25617
I2
sI156693
I3
sI25628
I3
sI189958
I1
sI25640
I0
sI156714
I1
sI25643
I0
sI25644
I3
sI156726
I2
sI25655
I2
sI25657
I0
sI25661
I3
sI25666
I0
sI25667
I3
sI25668
I2
sI25674
I2
sI25693
I3
sI156770
I2
sI320614
I0
sI237631
I2
sI189557
I3
sI58486
I3
sI156793
I3
sI58491
I3
sI58499
I3
sI25735
I1
sI287894
I1
sI25751
I2
sI25753
I3
sI287900
I3
sI25759
I0
sI320672
I3
sI304668
I2
sI25772
I3
sI25773
I2
sI320686
I3
sI25779
I1
sI26142
I3
sI37065
I0
sI42527
I3
sI25789
I3
sI25791
I3
sI25792
I3
sI25794
I2
sI25796
I2
sI25797
I2
sI25809
I2
sI25811
I1
sI25812
I3
sI25813
I3
sI25815
I3
sI25816
I2
sI25818
I3
sI25819
I0
sI124127
I1
sI25824
I0
sI25830
I3
sI25835
I3
sI25839
I2
sI124144
I0
sI25843
I3
sI31614
I2
sI168148
I3
sI484906
I2
sI25856
I3
sI108075
I3
sI25860
I2
sI156937
I0
sI255251
I1
sI25879
I3
sI91695
I2
sI255538
I3
sI25905
I3
sI25908
I3
sI25913
I3
sI25915
I3
sI25920
I3
sI25921
I3
sI25922
I3
sI25923
I2
sI25924
I3
sI25925
I3
sI25926
I2
sI25929
I0
sI25930
I2
sI91473
I0
sI25942
I1
sI25947
I1
sI25951
I3
sI25957
I0
sI25962
I3
sI91503
I3
sI231093
I2
sI25975
I3
sI25977
I0
sI419196
I3
sI25984
I3
sI288320
I3
sI25990
I3
sI25994
I3
sI25995
I3
sI451980
I2
sI25997
I3
sI451982
I3
sI26002
I1
sI26004
I3
sI26005
I3
sI26010
I2
sI26014
I0
sI26016
I3
sI419238
I3
sI91560
I0
sI26028
I3
sI157101
I3
sI157102
I0
sI26040
I2
sI26044
I3
sI26045
I2
sI26051
I3
sI26052
I3
sI26057
I3
sI26065
I3
sI26066
I3
sI189910
I2
sI26078
I3
sI189922
I2
sI26085
I3
sI189927
I3
sI26092
I0
sI26096
I2
sI484858
I2
sI26107
I3
sI321020
I3
sI26109
I3
sI26111
I3
sI26112
I3
sI26113
I2
sI26114
I3
sI26115
I0
sI26116
I0
sI189957
I3
sI26118
I3
sI26119
I3
sI26120
I3
sI26121
I3
sI200962
I3
sI26126
I1
sI26127
I3
sI26130
I0
sI26132
I0
sI26136
I3
sI189977
I3
sI26138
I3
sI26139
I3
sI189982
I3
sI26144
I2
sI26145
I2
sI26146
I2
sI26148
I3
sI26150
I1
sI26151
I2
sI364217
I0
sI26154
I3
sI26155
I3
sI26156
I0
sI206429
I3
sI26160
I3
sI26162
I3
sI26163
I2
sI26164
I1
sI26166
I0
sI26167
I1
sI26168
I1
sI26169
I2
sI190010
I3
sI26171
I3
sI26173
I1
sI26176
I3
sI157249
I3
sI157252
I3
sI26181
I2
sI288328
I3
sI190027
I3
sI190030
I0
sI26195
I2
sI26199
I2
sI288349
I0
sI26209
I3
sI26211
I3
sI157284
I1
sI26214
I3
sI26215
I1
sI26216
I3
sI157289
I3
sI26221
I2
sI26222
I3
sI26223
I3
sI26224
I3
sI157288
I3
sI157303
I1
sI26233
I1
sI26234
I2
sI26235
I3
sI26236
I3
sI26238
I3
sI26241
I1
sI26242
I3
sI26244
I3
sI26245
I3
sI26251
I2
sI26253
I3
sI91790
I0
sI26255
I3
sI26256
I3
sI26257
I3
sI452243
I2
sI26260
I0
sI26262
I2
sI26263
I0
sI26264
I3
sI113604
I3
sI26275
I1
sI26279
I3
sI26282
I0
sI26284
I3
sI26285
I2
sI26287
I3
sI26288
I2
sI26290
I1
sI26291
I3
sI266526
I2
sI26294
I2
sI485047
I3
sI157369
I0
sI190142
I1
sI157375
I3
sI157376
I3
sI26307
I3
sI26310
I2
sI26312
I0
sI26315
I3
sI26324
I3
sI26325
I3
sI26326
I2
sI26327
I3
sI26328
I3
sI26330
I2
sI26331
I3
sI26332
I0
sI26333
I3
sI26335
I1
sI26336
I3
sI26343
I1
sI26344
I0
sI26345
I3
sI26346
I3
sI26347
I0
sI26348
I3
sI26349
I2
sI26351
I3
sI26353
I3
sI26354
I3
sI26357
I3
sI26360
I3
sI26364
I0
sI26367
I1
sI26368
I3
sI102699
I2
sI26374
I0
sI26376
I0
sI40159
I3
sI26383
I3
sI75395
I3
sI485141
I3
sI26390
I3
sI26391
I0
sI26392
I0
sI91929
I1
sI26394
I0
sI26399
I3
sI26402
I3
sI26403
I3
sI26406
I2
sI26408
I2
sI26409
I0
sI26410
I1
sI157490
I3
sI26419
I2
sI26420
I2
sI26423
I3
sI26434
I2
sI26437
I2
sI26440
I3
sI26441
I2
sI288591
I2
sI91984
I2
sI26450
I3
sI26451
I0
sI26453
I2
sI26455
I2
sI26458
I3
sI26459
I3
sI26461
I0
sI419681
I3
sI288613
I3
sI26472
I2
sI26473
I3
sI179175
I3
sI26476
I3
sI26477
I0
sI26478
I0
sI26483
I1
sI26484
I1
sI92024
I3
sI26489
I3
sI92026
I3
sI26491
I3
sI26494
I0
sI42645
I2
sI26499
I3
sI26502
I0
sI140951
I1
sI26510
I1
sI75416
I0
sI26522
I3
sI26523
I1
sI190366
I2
sI26527
I3
sI239259
I0
sI26532
I3
sI26535
I2
sI26536
I1
sI26538
I2
sI26539
I2
sI26545
I3
sI26547
I1
sI419765
I2
sI26552
I3
sI26554
I0
sI157630
I3
sI92095
I3
sI26564
I3
sI419791
I3
sI255960
I3
sI26586
I1
sI26587
I2
sI26588
I3
sI26589
I1
sI26590
I0
sI26593
I3
sI26594
I1
sI26605
I0
sI26606
I3
sI632488
I2
sI190451
I0
sI190452
I3
sI26613
I3
sI26616
I3
sI26618
I3
sI26625
I2
sI26630
I3
sI179201
I3
sI26634
I2
sI26635
I3
sI288783
I3
sI288784
I2
sI26646
I0
sI157723
I2
sI190493
I2
sI26656
I2
sI157729
I2
sI26660
I3
sI26661
I3
sI26664
I2
sI362212
I3
sI26670
I1
sI26671
I3
sI113672
I3
sI26674
I3
sI26675
I2
sI26677
I2
sI92215
I3
sI190522
I3
sI190525
I2
sI92222
I2
sI92223
I2
sI26692
I0
sI26295
I1
sI26708
I3
sI26709
I3
sI92252
I2
sI518240
I3
sI26721
I3
sI190562
I3
sI92260
I3
sI92263
I2
sI157806
I3
sI288880
I1
sI26741
I3
sI157838
I3
sI26771
I3
sI26777
I3
sI26781
I3
sI26782
I3
sI26784
I3
sI26785
I3
sI354467
I2
sI157860
I3
sI354472
I3
sI157865
I3
sI354475
I2
sI157869
I3
sI26799
I2
sI354482
I3
sI26805
I3
sI299380
I1
sI354491
I0
sI26813
I3
sI59582
I3
sI354495
I3
sI26818
I1
sI256197
I2
sI256198
I0
sI256202
I3
sI59595
I3
sI157901
I3
sI354519
I1
sI26852
I3
sI113702
I3
sI354535
I3
sI75474
I2
sI485634
I3
sI157955
I1
sI210392
I3
sI26886
I3
sI299393
I2
sI26894
I3
sI26896
I0
sI304856
I2
sI190741
I1
sI26916
I3
sI26928
I2
sI26955
I3
sI190796
I3
sI26959
I3
sI616784
I2
sI190801
I3
sI37262
I0
sI92507
I3
sI289118
I1
sI289119
I3
sI26982
I2
sI92527
I3
sI420209
I2
sI26994
I3
sI289140
I0
sI289145
I1
sI190846
I3
sI420224
I3
sI27009
I3
sI289155
I2
sI190854
I2
sI289159
I1
sI518538
I3
sI27022
I3
sI27031
I1
sI190872
I2
sI289178
I0
sI33634
I3
sI387499
I2
sI27052
I2
sI321970
I3
sI289217
I0
sI289222
I0
sI289248
I2
sI289250
I3
sI289251
I0
sI289252
I3
sI27110
I2
sI354792
I3
sI289257
I2
sI27120
I3
sI92666
I2
sI190971
I3
sI190972
I2
sI289278
I2
sI27149
I3
sI27155
I2
sI27156
I2
sI27157
I0
sI158234
I3
sI158235
I3
sI158237
I3
sI27168
I2
sI158253
I3
sI92718
I2
sI113757
I0
sI158257
I0
sI158263
I0
sI158278
I3
sI158284
I3
sI42369
I3
sI158297
I0
sI27232
I3
sI27234
I2
sI191080
I3
sI191081
I2
sI244840
I2
sI92790
I3
sI277609
I2
sI289401
I3
sI27267
I0
sI387723
I2
sI27276
I3
sI27277
I2
sI387727
I3
sI27282
I2
sI27284
I1
sI179310
I2
sI191132
I3
sI191136
I3
sI289441
I0
sI27299
I1
sI27300
I2
sI27302
I3
sI27303
I3
sI27306
I2
sI27307
I3
sI27310
I3
sI27313
I1
sI27314
I3
sI27315
I3
sI27316
I2
sI27320
I3
sI27324
I3
sI27326
I0
sI289472
I0
sI27329
I1
sI27330
I3
sI27331
I3
sI27335
I2
sI27339
I2
sI453324
I3
sI27349
I3
sI256727
I2
sI420568
I3
sI27358
I1
sI27363
I3
sI27364
I3
sI27365
I3
sI27366
I2
sI27367
I3
sI27371
I0
sI27372
I0
sI27376
I1
sI92935
I0
sI27411
I3
sI27412
I3
sI27415
I3
sI27418
I2
sI27419
I3
sI27420
I3
sI27421
I2
sI27423
I0
sI27424
I1
sI27425
I3
sI27427
I3
sI27429
I3
sI27430
I0
sI27431
I2
sI27433
I1
sI274787
I1
sI27436
I3
sI27437
I3
sI27438
I3
sI322354
I3
sI27461
I3
sI30937
I2
sI27467
I1
sI27471
I3
sI27472
I3
sI158545
I3
sI191315
I2
sI27478
I2
sI27483
I3
sI27484
I3
sI27485
I0
sI27488
I1
sI141115
I3
sI27492
I3
sI27500
I3
sI27502
I3
sI93039
I3
sI420720
I2
sI93041
I3
sI158581
I2
sI158582
I0
sI27512
I3
sI27515
I2
sI27518
I1
sI27521
I3
sI27524
I2
sI93064
I3
sI27534
I3
sI27535
I3
sI27550
I3
sI27554
I3
sI27556
I0
sI206662
I3
sI27558
I1
sI27560
I1
sI27565
I3
sI27568
I0
sI27570
I3
sI27573
I2
sI27574
I2
sI388025
I3
sI289732
I0
sI256968
I3
sI27598
I2
sI206669
I3
sI27607
I3
sI27610
I2
sI27613
I0
sI27615
I1
sI27630
I3
sI27642
I0
sI420867
I2
sI27657
I0
sI27658
I1
sI27659
I1
sI27660
I3
sI27663
I2
sI27664
I0
sI27665
I0
sI355347
I1
sI27668
I3
sI355349
I3
sI27671
I3
sI27672
I2
sI289817
I3
sI27675
I2
sI27676
I2
sI27677
I1
sI355358
I3
sI27679
I3
sI27680
I2
sI355362
I2
sI355363
I0
sI27684
I2
sI27685
I2
sI93223
I2
sI27690
I0
sI27691
I1
sI27692
I3
sI93229
I0
sI27694
I2
sI27695
I2
sI27696
I0
sI27697
I1
sI27702
I3
sI27705
I2
sI27708
I2
sI158783
I2
sI27719
I3
sI27720
I3
sI27721
I3
sI93261
I3
sI16199
I1
sI27731
I2
sI27733
I0
sI27734
I0
sI289883
I3
sI289884
I3
sI191583
I2
sI158841
I3
sI158845
I3
sI27774
I3
sI191616
I3
sI93317
I2
sI158861
I2
sI93327
I0
sI93332
I3
sI288622
I2
sI93343
I3
sI93344
I3
sI93347
I3
sI93348
I3
sI158886
I3
sI93353
I2
sI93356
I0
sI93358
I3
sI93359
I3
sI93361
I0
sI212170
I0
sI27838
I3
sI27843
I0
sI24932
I3
sI157560
I3
sI157561
I0
sI27866
I2
sI290018
I2
sI290022
I3
sI31953
I0
sI158962
I2
sI93431
I3
sI93447
I0
sI93448
I0
sI93450
I1
sI93453
I0
sI93457
I3
sI93458
I3
sI93466
I3
sI93470
I2
sI93471
I2
sI93478
I0
sI191784
I3
sI191786
I0
sI191787
I3
sI93484
I3
sI191789
I3
sI93488
I3
sI191793
I3
sI299572
I3
sI27974
I0
sI453973
I0
sI27995
I2
sI388456
I3
sI191869
I3
sI355713
I2
sI355739
I3
sI355740
I2
sI355744
I3
sI191906
I3
sI388522
I2
sI191788
I3
sI28081
I3
sI28108
I2
sI28109
I3
sI28110
I2
sI191972
I3
sI28133
I3
sI191989
I2
sI191994
I3
sI56585
I3
sI257540
I2
sI421387
I3
sI355874
I3
sI28199
I0
sI164729
I2
sI355901
I3
sI192064
I1
sI192065
I3
sI277771
I3
sI299618
I2
sI192079
I3
sI290410
I3
sI290411
I3
sI159342
I2
sI92094
I2
sI388728
I0
sI28284
I3
sI192132
I2
sI159373
I2
sI93839
I3
sI28308
I3
sI159386
I0
sI257695
I2
sI159394
I3
sI115512
I2
sI388793
I0
sI168569
I3
sI159452
I3
sI257757
I3
sI356068
I3
sI356069
I2
sI159465
I3
sI356076
I3
sI93965
I0
sI119427
I3
sI28439
I3
sI388894
I3
sI93984
I3
sI93985
I3
sI255963
I3
sI257828
I3
sI388903
I0
sI93994
I3
sI93996
I2
sI28461
I2
sI192303
I3
sI192306
I2
sI257843
I3
sI323380
I2
sI257845
I3
sI257847
I3
sI28472
I3
sI323385
I2
sI94010
I0
sI192316
I2
sI94013
I3
sI192319
I3
sI28480
I3
sI94017
I3
sI192323
I3
sI192325
I2
sI192326
I2
sI257865
I3
sI96968
I3
sI94030
I3
sI94033
I3
sI179513
I2
sI94041
I3
sI94043
I3
sI94044
I3
sI94045
I0
sI37520
I0
sI174054
I3
sI651112
I3
sI159594
I3
sI159596
I3
sI323438
I2
sI212285
I0
sI159606
I2
sI94086
I2
sI305132
I3
sI277826
I3
sI108525
I0
sI421778
I0
sI277827
I2
sI206830
I2
sI421785
I3
sI421786
I3
sI421797
I3
sI487334
I1
sI26609
I3
sI159663
I3
sI26611
I2
sI26612
I0
sI94139
I1
sI94164
I3
sI668725
I2
sI71550
I0
sI684002
I3
sI463529
I0
sI192504
I3
sI32087
I3
sI163160
I2
sI356378
I0
sI70320
I0
sI520230
I2
sI103089
I3
sI26631
I3
sI356400
I2
sI356403
I3
sI356404
I2
sI356406
I2
sI159803
I3
sI192574
I3
sI94280
I3
sI94284
I3
sI94289
I2
sI389202
I2
sI159833
I3
sI159839
I2
sI94306
I1
sI94307
I2
sI94308
I2
sI94309
I3
sI94313
I3
sI520299
I3
sI94318
I3
sI159856
I2
sI192625
I2
sI94323
I3
sI94324
I1
sI94325
I3
sI94326
I3
sI94328
I3
sI94329
I0
sI94332
I3
sI159881
I3
sI159882
I3
sI159883
I1
sI159888
I3
sI127130
I3
sI520349
I2
sI258206
I1
sI127140
I3
sI192679
I3
sI258245
I0
sI291015
I3
sI192712
I3
sI94419
I3
sI127191
I0
sI258269
I3
sI28901
I3
sI127207
I0
sI422121
I2
sI520426
I3
sI28907
I3
sI422127
I0
sI422128
I2
sI618737
I1
sI127224
I2
sI94462
I3
sI192770
I3
sI94467
I3
sI192775
I0
sI192779
I3
sI192780
I3
sI30744
I2
sI192782
I2
sI144993
I2
sI190511
I0
sI163205
I2
sI291106
I2
sI192807
I3
sI28971
I2
sI291127
I3
sI291131
I3
sI206901
I0
sI183184
I3
sI70369
I3
sI192841
I3
sI192842
I3
sI94545
I3
sI94549
I3
sI94550
I2
sI192856
I0
sI94553
I3
sI94571
I2
sI29036
I3
sI26686
I2
sI29049
I3
sI26687
I2
sI422273
I3
sI192899
I0
sI422281
I2
sI127370
I3
sI127374
I3
sI291219
I0
sI192920
I3
sI192921
I0
sI192923
I2
sI192928
I3
sI618932
I2
sI487867
I3
sI94652
I2
sI717248
I2
sI94658
I1
sI160196
I0
sI94666
I2
sI160211
I0
sI94678
I1
sI29145
I0
sI160220
I3
sI94685
I3
sI160222
I3
sI94690
I2
sI127460
I2
sI160243
I3
sI29177
I2
sI553476
I1
sI684552
I0
sI422412
I0
sI422413
I2
sI29198
I3
sI157788
I3
sI616544
I3
sI29255
I0
sI29257
I0
sI29259
I3
sI553557
I3
sI94812
I3
sI520798
I1
sI356960
I2
sI291425
I0
sI160367
I1
sI160370
I2
sI29303
I1
sI94841
I1
sI37653
I0
sI29316
I2
sI29318
I3
sI38075
I3
sI193174
I2
sI488087
I3
sI193176
I3
sI193177
I2
sI193178
I3
sI29340
I2
sI94883
I2
sI94885
I0
sI94886
I3
sI94887
I3
sI94891
I0
sI29356
I2
sI193202
I0
sI193203
I0
sI160447
I3
sI160448
I3
sI94915
I3
sI94916
I2
sI16254
I3
sI193222
I2
sI193223
I3
sI193224
I0
sI193226
I2
sI488139
I2
sI488140
I2
sI389845
I3
sI357080
I2
sI127712
I1
sI160495
I3
sI160496
I2
sI70440
I2
sI488189
I3
sI488195
I3
sI169015
I3
sI422685
I2
sI29471
I3
sI291620
I3
sI193322
I0
sI291635
I3
sI160568
I3
sI258873
I3
sI291642
I3
sI291643
I1
sI291646
I3
sI291655
I3
sI97762
I2
sI496356
I2
sI160599
I3
sI29529
I1
sI95076
I3
sI95078
I2
sI29543
I3
sI488297
I3
sI95082
I2
sI357230
I2
sI127857
I0
sI160627
I3
sI160628
I3
sI95094
I0
sI29568
I2
sI193410
I0
sI29571
I3
sI29580
I3
sI29581
I2
sI127887
I0
sI127888
I3
sI29587
I2
sI62358
I3
sI422808
I3
sI116645
I3
sI422812
I2
sI193439
I3
sI173384
I3
sI193441
I2
sI357288
I0
sI62382
I2
sI62388
I3
sI357302
I3
sI148289
I3
sI29631
I3
sI157856
I1
sI95176
I3
sI127945
I2
sI157859
I2
sI127959
I3
sI324578
I2
sI255221
I2
sI357348
I2
sI29672
I3
sI29673
I3
sI95212
I3
sI95213
I3
sI95216
I3
sI521203
I3
sI521204
I2
sI95225
I2
sI95226
I0
sI95227
I3
sI95228
I3
sI193533
I1
sI95230
I2
sI95231
I1
sI95233
I3
sI291854
I3
sI26797
I3
sI128020
I2
sI95257
I2
sI128036
I3
sI128037
I3
sI128045
I3
sI128047
I3
sI354485
I2
sI521280
I3
sI160844
I3
sI160845
I3
sI128083
I1
sI291929
I3
sI291932
I3
sI95327
I3
sI95331
I3
sI95335
I2
sI95336
I1
sI128106
I3
sI95344
I3
sI29812
I3
sI95352
I3
sI239807
I0
sI160901
I1
sI160906
I0
sI128148
I3
sI160936
I0
sI160955
I3
sI518346
I3
sI95434
I2
sI190669
I0
sI29904
I2
sI128209
I3
sI259296
I3
sI37755
I3
sI128230
I3
sI259306
I3
sI114215
I3
sI128239
I1
sI114216
I3
sI161012
I3
sI161014
I1
sI161015
I2
sI488710
I3
sI193800
I2
sI92375
I3
sI193805
I3
sI193807
I3
sI95509
I3
sI423190
I2
sI95513
I0
sI179759
I3
sI423207
I2
sI554280
I0
sI128298
I0
sI4999
I2
sI95533
I2
sI324910
I3
sI259375
I0
sI554294
I2
sI95545
I0
sI193859
I3
sI193866
I3
sI193869
I0
sI193870
I3
sI30031
I3
sI95574
I3
sI26853
I2
sI128360
I3
sI95597
I1
sI259439
I2
sI95609
I3
sI95614
I3
sI95615
I3
sI193927
I3
sI128392
I0
sI193930
I3
sI26861
I3
sI193937
I3
sI193952
I3
sI239856
I3
sI292262
I3
sI259507
I0
sI97865
I1
sI30138
I3
sI30143
I1
sI128455
I3
sI128456
I3
sI23918
I1
sI292313
I0
sI179791
I3
sI43259
I3
sI194034
I3
sI194036
I0
sI357880
I3
sI357881
I3
sI161291
I0
sI390669
I2
sI196185
I0
sI43268
I2
sI30248
I3
sI30249
I0
sI30250
I3
sI30253
I3
sI30254
I3
sI30255
I3
sI30256
I2
sI95793
I0
sI489013
I3
sI30271
I3
sI30273
I3
sI30275
I3
sI30276
I3
sI30278
I2
sI30279
I3
sI30284
I0
sI128590
I3
sI30287
I3
sI194134
I3
sI292454
I2
sI620136
I1
sI292461
I0
sI292462
I2
sI161396
I3
sI194165
I0
sI409193
I2
sI201664
I2
sI30338
I3
sI196203
I3
sI30342
I3
sI161415
I2
sI30348
I0
sI161421
I3
sI196205
I3
sI30352
I3
sI30353
I2
sI30355
I0
sI30357
I3
sI30358
I0
sI128666
I3
sI30367
I2
sI95904
I3
sI30371
I3
sI30373
I3
sI30380
I1
sI128689
I1
sI128721
I3
sI95955
I2
sI30424
I3
sI30425
I3
sI128732
I0
sI30434
I3
sI30443
I3
sI358127
I0
sI30453
I3
sI30455
I1
sI30457
I3
sI30458
I1
sI30459
I3
sI30460
I3
sI358148
I3
sI358149
I3
sI30472
I2
sI30474
I3
sI358155
I3
sI358156
I3
sI30477
I3
sI194325
I2
sI489240
I1
sI128795
I3
sI30492
I3
sI103386
I0
sI30496
I0
sI239920
I3
sI128802
I3
sI128803
I1
sI30503
I0
sI30509
I3
sI212695
I0
sI30515
I3
sI30516
I0
sI128827
I3
sI30526
I2
sI30530
I3
sI30534
I3
sI30536
I0
sI128843
I3
sI358221
I3
sI128851
I3
sI128852
I3
sI30549
I0
sI128864
I2
sI30563
I3
sI128870
I3
sI161644
I3
sI30577
I3
sI161651
I3
sI161655
I2
sI161660
I0
sI161661
I3
sI391038
I3
sI30593
I3
sI522116
I0
sI30598
I3
sI30601
I2
sI30602
I3
sI30603
I3
sI358289
I2
sI161682
I2
sI161683
I3
sI30612
I3
sI30613
I2
sI30616
I3
sI30617
I3
sI30618
I2
sI30619
I0
sI30620
I3
sI30622
I1
sI292769
I3
sI30626
I2
sI292771
I0
sI292772
I3
sI292773
I3
sI30630
I2
sI30631
I2
sI30633
I1
sI30635
I3
sI30638
I0
sI194479
I2
sI128946
I3
sI30646
I0
sI30649
I3
sI32415
I2
sI43338
I3
sI30657
I1
sI358339
I3
sI30660
I1
sI30661
I3
sI30663
I2
sI30664
I1
sI26956
I3
sI30666
I3
sI30668
I3
sI30669
I1
sI30670
I3
sI43341
I3
sI96209
I0
sI114339
I2
sI30679
I2
sI245412
I2
sI30682
I3
sI522203
I3
sI30684
I3
sI30686
I2
sI30687
I3
sI30689
I3
sI30690
I0
sI30691
I2
sI194532
I0
sI194533
I0
sI30700
I2
sI30702
I0
sI30703
I1
sI30706
I3
sI30707
I3
sI30709
I0
sI30710
I3
sI30712
I0
sI30713
I1
sI30714
I0
sI30715
I3
sI30717
I1
sI30720
I1
sI30721
I3
sI30723
I3
sI30724
I2
sI30727
I0
sI30728
I0
sI30731
I3
sI30732
I0
sI30735
I0
sI30736
I3
sI30738
I3
sI30739
I3
sI30740
I3
sI32430
I3
sI30742
I1
sI30743
I2
sI292888
I3
sI30747
I2
sI489501
I3
sI30752
I3
sI30753
I0
sI522276
I3
sI30764
I0
sI164694
I3
sI30776
I2
sI30788
I3
sI194632
I1
sI30793
I3
sI300045
I3
sI30802
I2
sI30805
I3
sI260182
I2
sI30811
I3
sI30818
I3
sI30819
I3
sI194660
I0
sI30822
I0
sI30823
I3
sI30824
I3
sI30827
I0
sI30829
I0
sI30830
I0
sI30831
I3
sI30832
I2
sI30834
I2
sI30835
I3
sI30839
I3
sI30840
I2
sI30841
I1
sI30842
I2
sI30843
I0
sI196288
I2
sI30853
I0
sI30854
I0
sI30855
I1
sI30856
I3
sI30859
I1
sI161933
I2
sI96398
I2
sI30865
I3
sI30868
I3
sI30871
I3
sI30872
I3
sI129177
I0
sI30876
I2
sI30878
I2
sI30879
I3
sI30881
I0
sI30884
I3
sI30885
I3
sI30886
I0
sI289137
I3
sI30889
I3
sI30890
I3
sI30892
I2
sI30893
I2
sI30894
I3
sI30895
I2
sI30897
I2
sI30899
I1
sI30900
I1
sI30901
I0
sI30902
I3
sI30903
I3
sI30904
I3
sI92532
I2
sI30906
I3
sI30907
I2
sI30909
I0
sI30910
I2
sI30911
I3
sI30912
I3
sI30914
I3
sI30915
I2
sI424132
I3
sI30918
I3
sI30919
I0
sI96456
I2
sI30921
I0
sI30922
I0
sI30924
I2
sI30928
I3
sI30929
I3
sI30930
I3
sI30931
I3
sI30934
I1
sI30935
I2
sI30936
I3
sI129241
I1
sI30940
I3
sI96481
I0
sI30949
I3
sI30953
I0
sI30954
I2
sI30955
I2
sI30956
I2
sI30958
I3
sI30959
I3
sI30960
I0
sI30962
I3
sI30964
I3
sI30966
I2
sI30967
I1
sI30968
I3
sI129275
I3
sI30973
I1
sI30974
I1
sI30975
I2
sI30976
I3
sI30977
I3
sI30978
I0
sI30981
I0
sI30983
I3
sI30986
I3
sI30987
I3
sI30988
I0
sI30989
I1
sI30990
I1
sI30991
I0
sI30992
I1
sI30994
I3
sI190851
I3
sI96532
I3
sI96534
I2
sI325916
I0
sI31010
I0
sI31012
I2
sI31013
I2
sI31014
I3
sI293160
I3
sI31018
I2
sI518535
I3
sI129326
I2
sI141704
I3
sI358713
I3
sI31037
I3
sI31045
I2
sI31047
I1
sI522571
I3
sI31052
I0
sI522576
I3
sI293205
I3
sI96598
I0
sI391516
I0
sI31070
I3
sI163557
I3
sI31073
I0
sI96613
I1
sI358759
I2
sI96616
I3
sI96617
I3
sI96618
I1
sI96619
I2
sI96620
I0
sI31085
I3
sI129391
I2
sI31088
I2
sI101419
I0
sI96627
I0
sI31092
I0
sI260470
I2
sI31097
I3
sI31100
I3
sI31103
I3
sI31104
I3
sI96643
I2
sI96645
I3
sI260486
I3
sI96651
I1
sI96652
I0
sI522673
I3
sI555442
I2
sI555443
I3
sI129462
I3
sI31160
I3
sI129469
I2
sI424392
I0
sI260564
I2
sI31191
I0
sI31199
I0
sI31205
I3
sI31207
I2
sI42502
I1
sI5202
I3
sI31214
I3
sI293360
I2
sI201811
I3
sI522746
I2
sI522750
I3
sI31235
I2
sI31241
I3
sI31244
I3
sI522765
I2
sI31255
I0
sI358937
I2
sI362205
I2
sI260659
I3
sI31290
I3
sI31291
I3
sI31292
I0
sI31293
I1
sI31294
I2
sI31296
I3
sI31298
I2
sI31299
I1
sI96836
I1
sI96838
I2
sI31303
I3
sI31304
I2
sI31306
I3
sI96844
I1
sI96848
I3
sI31314
I2
sI31316
I3
sI96854
I2
sI31325
I2
sI522846
I1
sI260708
I3
sI37992
I3
sI195190
I3
sI37993
I1
sI195199
I2
sI555650
I3
sI195207
I3
sI490121
I3
sI195215
I0
sI96914
I2
sI96937
I3
sI38004
I2
sI96957
I1
sI195263
I0
sI162497
I3
sI490181
I0
sI31432
I1
sI31435
I2
sI196386
I2
sI195283
I3
sI31453
I3
sI31454
I3
sI129763
I3
sI195305
I3
sI31470
I1
sI162548
I3
sI162549
I2
sI31490
I3
sI195335
I3
sI31498
I3
sI359188
I3
sI359189
I2
sI359190
I2
sI359191
I3
sI359193
I2
sI129819
I3
sI359197
I2
sI359202
I2
sI354786
I2
sI31568
I2
sI195413
I2
sI293718
I3
sI32569
I3
sI293722
I3
sI260964
I3
sI260969
I3
sI162679
I3
sI195448
I3
sI129915
I2
sI129918
I0
sI31627
I2
sI129944
I2
sI31643
I0
sI46881
I2
sI38044
I0
sI97194
I2
sI114503
I0
sI195500
I0
sI424879
I3
sI31672
I2
sI298933
I3
sI359378
I3
sI97236
I3
sI31701
I3
sI424918
I3
sI35972
I3
sI31718
I2
sI130027
I3
sI31725
I2
sI31731
I3
sI195581
I3
sI195585
I0
sI195589
I0
sI109061
I3
sI359461
I2
sI97319
I2
sI31785
I3
sI97323
I2
sI97326
I3
sI97331
I0
sI97334
I2
sI130113
I2
sI162885
I1
sI130118
I2
sI97359
I3
sI97363
I1
sI195678
I2
sI162914
I3
sI523363
I0
sI130155
I3
sI294003
I0
sI195706
I3
sI523387
I2
sI523390
I3
sI195717
I2
sI195724
I3
sI31906
I2
sI31907
I0
sI31915
I0
sI31916
I0
sI31921
I2
sI26159
I2
sI97470
I3
sI31936
I0
sI261313
I2
sI31938
I3
sI195782
I1
sI195783
I3
sI38092
I0
sI97484
I3
sI97486
I3
sI97487
I0
sI97489
I2
sI97490
I3
sI97491
I3
sI261332
I3
sI97495
I3
sI97496
I0
sI97498
I1
sI31963
I3
sI192905
I2
sI97502
I3
sI195809
I3
sI261348
I1
sI97509
I2
sI97512
I2
sI97515
I3
sI201938
I3
sI31984
I2
sI97521
I3
sI31989
I0
sI31993
I0
sI130298
I0
sI23979
I1
sI173465
I2
sI425251
I2
sI185566
I2
sI32084
I2
sI195927
I0
sI32088
I3
sI163161
I0
sI163165
I2
sI294252
I3
sI294254
I3
sI294256
I3
sI32118
I2
sI169193
I0
sI97657
I3
sI97658
I0
sI163199
I2
sI163200
I3
sI70891
I3
sI363325
I3
sI163206
I3
sI163215
I0
sI32148
I2
sI163222
I3
sI163227
I3
sI163228
I3
sI195998
I2
sI97699
I0
sI163236
I3
sI164319
I3
sI163255
I1
sI97727
I3
sI97731
I2
sI97732
I3
sI97734
I3
sI32200
I3
sI97737
I2
sI21751
I3
sI97746
I1
sI97747
I2
sI97752
I2
sI261599
I2
sI127644
I2
sI261609
I3
sI425457
I0
sI180137
I0
sI97789
I3
sI294407
I3
sI97810
I3
sI261653
I3
sI261654
I3
sI103684
I3
sI196126
I1
sI130596
I0
sI196140
I0
sI32304
I2
sI32318
I3
sI491072
I2
sI196169
I3
sI196172
I3
sI196176
I3
sI32343
I0
sI32345
I3
sI196186
I3
sI196188
I0
sI130667
I3
sI185618
I1
sI130670
I2
sI228982
I3
sI195299
I3
sI425595
I3
sI196221
I3
sI98242
I3
sI196238
I3
sI294545
I0
sI622233
I2
sI261787
I1
sI32413
I2
sI491167
I3
sI491168
I2
sI32418
I1
sI32419
I3
sI32421
I0
sI360108
I2
sI37087
I3
sI130738
I3
sI32436
I3
sI32441
I3
sI32446
I1
sI32447
I2
sI32448
I2
sI32449
I3
sI32450
I3
sI97988
I3
sI32453
I3
sI32455
I3
sI97992
I2
sI32457
I3
sI32458
I3
sI27255
I1
sI32465
I0
sI196308
I0
sI98254
I3
sI196311
I3
sI360156
I2
sI38181
I2
sI32484
I3
sI32485
I3
sI360166
I2
sI98027
I3
sI32496
I1
sI98057
I3
sI98058
I0
sI196366
I0
sI163604
I1
sI163605
I3
sI163608
I2
sI163616
I3
sI163618
I3
sI32547
I0
sI32553
I3
sI36000
I3
sI32559
I2
sI32562
I1
sI425950
I2
sI32566
I2
sI163641
I3
sI212959
I3
sI32572
I2
sI32574
I3
sI32575
I3
sI32577
I3
sI32578
I2
sI32579
I3
sI32581
I3
sI32583
I3
sI32584
I1
sI32587
I3
sI32589
I3
sI32593
I2
sI32597
I3
sI163670
I2
sI720738
I3
sI32616
I3
sI32618
I3
sI32620
I0
sI32622
I3
sI32624
I2
sI32627
I0
sI32630
I3
sI32633
I1
sI196484
I0
sI196489
I0
sI32656
I3
sI32657
I1
sI32658
I1
sI32659
I3
sI32669
I3
sI32670
I3
sI98209
I2
sI32675
I3
sI458660
I3
sI32678
I1
sI32679
I1
sI32681
I3
sI98220
I0
sI491437
I3
sI32690
I2
sI32693
I1
sI32694
I3
sI32696
I3
sI154938
I3
sI32705
I2
sI32706
I0
sI32711
I3
sI32713
I1
sI32714
I3
sI294859
I0
sI32717
I3
sI294862
I3
sI294863
I3
sI305827
I3
sI32725
I3
sI32728
I2
sI191140
I3
sI32730
I3
sI32732
I3
sI32734
I3
sI68740
I1
sI163815
I3
sI32745
I3
sI32746
I1
sI32747
I0
sI32748
I0
sI32749
I0
sI32751
I3
sI163824
I3
sI163827
I3
sI163830
I3
sI32760
I3
sI32762
I2
sI163835
I2
sI32764
I0
sI163838
I2
sI163839
I2
s.